ARM GAS  C:\Users\Teodor\AppData\Local\Temp\cczmnjKd.s 			page 1


   1              		.cpu cortex-m4
   2              		.arch armv7e-m
   3              		.fpu fpv4-sp-d16
   4              		.eabi_attribute 27, 1
   5              		.eabi_attribute 28, 1
   6              		.eabi_attribute 20, 1
   7              		.eabi_attribute 21, 1
   8              		.eabi_attribute 23, 3
   9              		.eabi_attribute 24, 1
  10              		.eabi_attribute 25, 1
  11              		.eabi_attribute 26, 1
  12              		.eabi_attribute 30, 1
  13              		.eabi_attribute 34, 1
  14              		.eabi_attribute 18, 4
  15              		.file	"BluetoothClassicComm.c"
  16              		.text
  17              	.Ltext0:
  18              		.cfi_sections	.debug_frame
  19              		.section	.text.RB_Transmit_Read,"ax",%progbits
  20              		.align	1
  21              		.syntax unified
  22              		.thumb
  23              		.thumb_func
  25              	RB_Transmit_Read:
  26              	.LVL0:
  27              	.LFB134:
  28              		.file 1 "Drivers/BluetoothComm/BluetoothClassicComm.c"
   1:Drivers/BluetoothComm/BluetoothClassicComm.c **** /**
   2:Drivers/BluetoothComm/BluetoothClassicComm.c ****  * @file BluetoothClassicComm.c
   3:Drivers/BluetoothComm/BluetoothClassicComm.c ****  * @author teodor
   4:Drivers/BluetoothComm/BluetoothClassicComm.c **** 
   5:Drivers/BluetoothComm/BluetoothClassicComm.c ****  * @brief This file is a part of Line follower application
   6:Drivers/BluetoothComm/BluetoothClassicComm.c ****  * This is Bluetooth module to communicate wireless with Line Follower
   7:Drivers/BluetoothComm/BluetoothClassicComm.c ****  * I used module HC-06 - if you are interested about information of the modules please find data sh
   8:Drivers/BluetoothComm/BluetoothClassicComm.c ****  */
   9:Drivers/BluetoothComm/BluetoothClassicComm.c **** 
  10:Drivers/BluetoothComm/BluetoothClassicComm.c **** 
  11:Drivers/BluetoothComm/BluetoothClassicComm.c **** #include "BluetoothClassicComm.h"
  12:Drivers/BluetoothComm/BluetoothClassicComm.c **** 
  13:Drivers/BluetoothComm/BluetoothClassicComm.c **** #include "main.h"
  14:Drivers/BluetoothComm/BluetoothClassicComm.c **** 
  15:Drivers/BluetoothComm/BluetoothClassicComm.c **** #include "stdbool.h"
  16:Drivers/BluetoothComm/BluetoothClassicComm.c **** #include "string.h"
  17:Drivers/BluetoothComm/BluetoothClassicComm.c **** #include <stdio.h>
  18:Drivers/BluetoothComm/BluetoothClassicComm.c **** #include <stdlib.h>
  19:Drivers/BluetoothComm/BluetoothClassicComm.c **** #include "dma.h" /*DMA driver part of STM32 HAL Library*/
  20:Drivers/BluetoothComm/BluetoothClassicComm.c **** #include "usart.h"  /*usart driver part of STM32 HAL Library*/
  21:Drivers/BluetoothComm/BluetoothClassicComm.c **** #include "stddef.h"
  22:Drivers/BluetoothComm/BluetoothClassicComm.c **** #include "math.h"
  23:Drivers/BluetoothComm/BluetoothClassicComm.c **** 
  24:Drivers/BluetoothComm/BluetoothClassicComm.c **** #define SIMULATOR_PROBES_COUNT             300
  25:Drivers/BluetoothComm/BluetoothClassicComm.c **** #define BLU_SINGLE_MESSAGE_SIZE            100
  26:Drivers/BluetoothComm/BluetoothClassicComm.c **** #define BLU_SINGLE_REC_MESSAGE_SIZE        100
  27:Drivers/BluetoothComm/BluetoothClassicComm.c **** #define BLU_STATISTICS_PERIOD              5000
  28:Drivers/BluetoothComm/BluetoothClassicComm.c **** #define BLU_DATA_REPORTING_TIME            20
  29:Drivers/BluetoothComm/BluetoothClassicComm.c **** 
  30:Drivers/BluetoothComm/BluetoothClassicComm.c **** /**!
ARM GAS  C:\Users\Teodor\AppData\Local\Temp\cczmnjKd.s 			page 2


  31:Drivers/BluetoothComm/BluetoothClassicComm.c ****  * \brief BluRingBufferStatus_t
  32:Drivers/BluetoothComm/BluetoothClassicComm.c ****  * \details ---
  33:Drivers/BluetoothComm/BluetoothClassicComm.c ****  * */
  34:Drivers/BluetoothComm/BluetoothClassicComm.c **** typedef enum BluRingBufferStatus_t
  35:Drivers/BluetoothComm/BluetoothClassicComm.c **** {
  36:Drivers/BluetoothComm/BluetoothClassicComm.c **** 	RB_OK       = 0,
  37:Drivers/BluetoothComm/BluetoothClassicComm.c **** 	RB_ERROR	= 1
  38:Drivers/BluetoothComm/BluetoothClassicComm.c **** } BluRingBufferStatus_t;
  39:Drivers/BluetoothComm/BluetoothClassicComm.c **** 
  40:Drivers/BluetoothComm/BluetoothClassicComm.c **** /**!
  41:Drivers/BluetoothComm/BluetoothClassicComm.c ****  * \brief BluRingBufferTransmit_t
  42:Drivers/BluetoothComm/BluetoothClassicComm.c ****  * \details ---
  43:Drivers/BluetoothComm/BluetoothClassicComm.c ****  * */
  44:Drivers/BluetoothComm/BluetoothClassicComm.c **** typedef struct
  45:Drivers/BluetoothComm/BluetoothClassicComm.c **** {
  46:Drivers/BluetoothComm/BluetoothClassicComm.c **** 	uint16_t Head; // Pointer to write
  47:Drivers/BluetoothComm/BluetoothClassicComm.c **** 	uint16_t Tail; // Pointer to read
  48:Drivers/BluetoothComm/BluetoothClassicComm.c **** 	uint8_t  MessageSize[BLU_TRANSMIT_RING_BUFFER_SIZE]; // Array to store messages size
  49:Drivers/BluetoothComm/BluetoothClassicComm.c **** } BluRingBufferTransmit_t;
  50:Drivers/BluetoothComm/BluetoothClassicComm.c **** 
  51:Drivers/BluetoothComm/BluetoothClassicComm.c **** /**!
  52:Drivers/BluetoothComm/BluetoothClassicComm.c ****  * \brief BluRingBufferReceive_t
  53:Drivers/BluetoothComm/BluetoothClassicComm.c ****  * \details ---
  54:Drivers/BluetoothComm/BluetoothClassicComm.c ****  * */
  55:Drivers/BluetoothComm/BluetoothClassicComm.c **** typedef struct
  56:Drivers/BluetoothComm/BluetoothClassicComm.c **** {
  57:Drivers/BluetoothComm/BluetoothClassicComm.c **** 
  58:Drivers/BluetoothComm/BluetoothClassicComm.c **** 	uint16_t Head; // Pointer to write
  59:Drivers/BluetoothComm/BluetoothClassicComm.c **** 	uint16_t Tail; // Pointer to read
  60:Drivers/BluetoothComm/BluetoothClassicComm.c **** 	uint8_t  MessageSize[BLU_RECEIVE_RING_BUFFER_SIZE]; // Array to store messages size
  61:Drivers/BluetoothComm/BluetoothClassicComm.c **** 	bool ReadyToRead[BLU_RECEIVE_RING_BUFFER_SIZE];
  62:Drivers/BluetoothComm/BluetoothClassicComm.c **** } BluRingBufferReceive_t;
  63:Drivers/BluetoothComm/BluetoothClassicComm.c **** 
  64:Drivers/BluetoothComm/BluetoothClassicComm.c **** typedef struct
  65:Drivers/BluetoothComm/BluetoothClassicComm.c **** {
  66:Drivers/BluetoothComm/BluetoothClassicComm.c **** 	float X[SIMULATOR_PROBES_COUNT];
  67:Drivers/BluetoothComm/BluetoothClassicComm.c **** 	float Y[SIMULATOR_PROBES_COUNT];
  68:Drivers/BluetoothComm/BluetoothClassicComm.c **** 	uint16_t T[SIMULATOR_PROBES_COUNT];
  69:Drivers/BluetoothComm/BluetoothClassicComm.c **** }Sim_PositionOnTruck_t;
  70:Drivers/BluetoothComm/BluetoothClassicComm.c **** 
  71:Drivers/BluetoothComm/BluetoothClassicComm.c **** typedef enum InternalRobotState_t
  72:Drivers/BluetoothComm/BluetoothClassicComm.c **** {
  73:Drivers/BluetoothComm/BluetoothClassicComm.c **** 	Standstill,
  74:Drivers/BluetoothComm/BluetoothClassicComm.c **** 	Driving,
  75:Drivers/BluetoothComm/BluetoothClassicComm.c **** }InternalRobotState_t;
  76:Drivers/BluetoothComm/BluetoothClassicComm.c **** 
  77:Drivers/BluetoothComm/BluetoothClassicComm.c **** typedef enum LoggingState_t
  78:Drivers/BluetoothComm/BluetoothClassicComm.c **** {
  79:Drivers/BluetoothComm/BluetoothClassicComm.c **** 	Suspended,
  80:Drivers/BluetoothComm/BluetoothClassicComm.c **** 	TrueDataLogging,
  81:Drivers/BluetoothComm/BluetoothClassicComm.c **** 	SimulatorDataLogging,
  82:Drivers/BluetoothComm/BluetoothClassicComm.c **** }LoggingState_t;
  83:Drivers/BluetoothComm/BluetoothClassicComm.c **** 
  84:Drivers/BluetoothComm/BluetoothClassicComm.c **** /**
  85:Drivers/BluetoothComm/BluetoothClassicComm.c ****  * *******************************************************************************************
  86:Drivers/BluetoothComm/BluetoothClassicComm.c ****  * Static variables
  87:Drivers/BluetoothComm/BluetoothClassicComm.c ****  * *******************************************************************************************
ARM GAS  C:\Users\Teodor\AppData\Local\Temp\cczmnjKd.s 			page 3


  88:Drivers/BluetoothComm/BluetoothClassicComm.c ****  * */
  89:Drivers/BluetoothComm/BluetoothClassicComm.c **** 
  90:Drivers/BluetoothComm/BluetoothClassicComm.c **** #define BLU_NVM_UPDATE_MAX_CALL_BACKS_COUNT 15
  91:Drivers/BluetoothComm/BluetoothClassicComm.c **** 
  92:Drivers/BluetoothComm/BluetoothClassicComm.c **** static void (*NvmUpdateCallBacks[BLU_NVM_UPDATE_MAX_CALL_BACKS_COUNT])(void) = {0};
  93:Drivers/BluetoothComm/BluetoothClassicComm.c **** 
  94:Drivers/BluetoothComm/BluetoothClassicComm.c **** static void (*ManualCtrlRequestCallBackPointer)(float vecV_X, float vecV_Y);
  95:Drivers/BluetoothComm/BluetoothClassicComm.c **** 
  96:Drivers/BluetoothComm/BluetoothClassicComm.c **** static LoggingState_t LoggingState = Suspended;
  97:Drivers/BluetoothComm/BluetoothClassicComm.c **** static InternalRobotState_t InternalRobotState = Standstill;
  98:Drivers/BluetoothComm/BluetoothClassicComm.c **** 
  99:Drivers/BluetoothComm/BluetoothClassicComm.c **** Sim_PositionOnTruck_t  SimFakeXY_MapDat;
 100:Drivers/BluetoothComm/BluetoothClassicComm.c **** 
 101:Drivers/BluetoothComm/BluetoothClassicComm.c **** static bool LogDroppedFlag =false;
 102:Drivers/BluetoothComm/BluetoothClassicComm.c **** static uint16_t RetransmissionCounter = 0U;
 103:Drivers/BluetoothComm/BluetoothClassicComm.c **** static uint16_t TransmisstedMessagesCounter = 0;
 104:Drivers/BluetoothComm/BluetoothClassicComm.c **** 
 105:Drivers/BluetoothComm/BluetoothClassicComm.c **** static uint16_t volatile UartBusyCounter =0u;
 106:Drivers/BluetoothComm/BluetoothClassicComm.c **** 
 107:Drivers/BluetoothComm/BluetoothClassicComm.c **** static BluRingBufferTransmit_t BluMainTransmitRingBuffer;
 108:Drivers/BluetoothComm/BluetoothClassicComm.c **** static uint8_t BluMainTransmitMessagesTab[BLU_TRANSMIT_RING_BUFFER_SIZE][BLU_SINGLE_MESSAGE_SIZE];
 109:Drivers/BluetoothComm/BluetoothClassicComm.c **** 
 110:Drivers/BluetoothComm/BluetoothClassicComm.c **** static BluRingBufferReceive_t BleMainReceiveRingBuffer;
 111:Drivers/BluetoothComm/BluetoothClassicComm.c **** static uint8_t BluMainReceiveMessagesTab[BLU_RECEIVE_RING_BUFFER_SIZE][BLU_SINGLE_REC_MESSAGE_SIZE]
 112:Drivers/BluetoothComm/BluetoothClassicComm.c **** 
 113:Drivers/BluetoothComm/BluetoothClassicComm.c **** 
 114:Drivers/BluetoothComm/BluetoothClassicComm.c **** static BLU_LfDataReport_t NewestLfDataReport = {0};
 115:Drivers/BluetoothComm/BluetoothClassicComm.c **** 
 116:Drivers/BluetoothComm/BluetoothClassicComm.c **** 
 117:Drivers/BluetoothComm/BluetoothClassicComm.c **** /*
 118:Drivers/BluetoothComm/BluetoothClassicComm.c ****  *********************************************************************************************
 119:Drivers/BluetoothComm/BluetoothClassicComm.c ****  * Static function prototypes section
 120:Drivers/BluetoothComm/BluetoothClassicComm.c ****  ********************************************************************************************
 121:Drivers/BluetoothComm/BluetoothClassicComm.c ****  */
 122:Drivers/BluetoothComm/BluetoothClassicComm.c **** 
 123:Drivers/BluetoothComm/BluetoothClassicComm.c **** static void Sim_Create_XY_FakeMap(void);
 124:Drivers/BluetoothComm/BluetoothClassicComm.c **** static BluRingBufferStatus_t RB_Transmit_Read(BluRingBufferTransmit_t *Buf, uint8_t *MessageSize, u
 125:Drivers/BluetoothComm/BluetoothClassicComm.c **** static BluRingBufferStatus_t RB_Transmit_Write(BluRingBufferTransmit_t *Buf,uint8_t *DataToWrite, u
 126:Drivers/BluetoothComm/BluetoothClassicComm.c **** static BluRingBufferStatus_t RB_Receive_GetNextMessageAddress(BluRingBufferReceive_t *Buf, uint8_t 
 127:Drivers/BluetoothComm/BluetoothClassicComm.c **** static BluRingBufferStatus_t RB_Receive_Read(BluRingBufferReceive_t *Buf, uint8_t *MessageSize, uin
 128:Drivers/BluetoothComm/BluetoothClassicComm.c **** 
 129:Drivers/BluetoothComm/BluetoothClassicComm.c **** 
 130:Drivers/BluetoothComm/BluetoothClassicComm.c **** /************************************************************************************************/
 131:Drivers/BluetoothComm/BluetoothClassicComm.c **** //  void HAL_UART_RxCpltCallback(UART_HandleTypeDef *huart){
 132:Drivers/BluetoothComm/BluetoothClassicComm.c **** //  	if(huart->Instance == USART2)
 133:Drivers/BluetoothComm/BluetoothClassicComm.c **** //  	{
 134:Drivers/BluetoothComm/BluetoothClassicComm.c **** //  		uint8_t *MessageReceiveBufferAddress;
 135:Drivers/BluetoothComm/BluetoothClassicComm.c **** 
 136:Drivers/BluetoothComm/BluetoothClassicComm.c **** //  		/*Start listen again as fast as possible*/
 137:Drivers/BluetoothComm/BluetoothClassicComm.c **** //  		RB_Receive_GetNextMessageAddress(&BleMainReceiveRingBuffer,&MessageReceiveBufferAddress);
 138:Drivers/BluetoothComm/BluetoothClassicComm.c **** //  		// Start listening again
 139:Drivers/BluetoothComm/BluetoothClassicComm.c **** //  		// HAL_UARTEx_ReceiveToIdle_DMA(&huart1, MessageReceiveBufferAddress, BLU_SINGLE_REC_MESSAGE_
 140:Drivers/BluetoothComm/BluetoothClassicComm.c **** //  		HAL_UART_Receive_DMA(&huart1, MessageReceiveBufferAddress, BLU_SINGLE_REC_MESSAGE_SIZE);
 141:Drivers/BluetoothComm/BluetoothClassicComm.c **** //  		// HAL_GPIO_TogglePin(LD1_GPIO_Port, LD1_Pin);
 142:Drivers/BluetoothComm/BluetoothClassicComm.c **** //  	}
 143:Drivers/BluetoothComm/BluetoothClassicComm.c **** //  }
 144:Drivers/BluetoothComm/BluetoothClassicComm.c **** 
ARM GAS  C:\Users\Teodor\AppData\Local\Temp\cczmnjKd.s 			page 4


 145:Drivers/BluetoothComm/BluetoothClassicComm.c **** static bool Received50BytesAndHitIdleFlag;
 146:Drivers/BluetoothComm/BluetoothClassicComm.c **** 
 147:Drivers/BluetoothComm/BluetoothClassicComm.c **** void HAL_UARTEx_RxEventCallback(UART_HandleTypeDef *huart, uint16_t Size)
 148:Drivers/BluetoothComm/BluetoothClassicComm.c **** {
 149:Drivers/BluetoothComm/BluetoothClassicComm.c **** 	static uint8_t *MessageReceiveBufferAddress;
 150:Drivers/BluetoothComm/BluetoothClassicComm.c **** 
 151:Drivers/BluetoothComm/BluetoothClassicComm.c ****  	if(huart->Instance == USART1)
 152:Drivers/BluetoothComm/BluetoothClassicComm.c ****  	{
 153:Drivers/BluetoothComm/BluetoothClassicComm.c **** 		if( (Size == BLU_SINGLE_REC_MESSAGE_SIZE) || (true == Received50BytesAndHitIdleFlag) )
 154:Drivers/BluetoothComm/BluetoothClassicComm.c **** 		{
 155:Drivers/BluetoothComm/BluetoothClassicComm.c **** 			Received50BytesAndHitIdleFlag = false; /*Clear the flag..*/
 156:Drivers/BluetoothComm/BluetoothClassicComm.c **** 			RB_Receive_GetNextMessageAddress(&BleMainReceiveRingBuffer,&MessageReceiveBufferAddress);
 157:Drivers/BluetoothComm/BluetoothClassicComm.c **** 			HAL_UARTEx_ReceiveToIdle_DMA(&huart1, MessageReceiveBufferAddress, BLU_SINGLE_REC_MESSAGE_SIZE);
 158:Drivers/BluetoothComm/BluetoothClassicComm.c **** 		}
 159:Drivers/BluetoothComm/BluetoothClassicComm.c **** 		else if(Size == (BLU_SINGLE_REC_MESSAGE_SIZE/2))
 160:Drivers/BluetoothComm/BluetoothClassicComm.c **** 		{
 161:Drivers/BluetoothComm/BluetoothClassicComm.c **** 			Received50BytesAndHitIdleFlag=true;
 162:Drivers/BluetoothComm/BluetoothClassicComm.c **** 			HAL_UARTEx_ReceiveToIdle_DMA(&huart1, &MessageReceiveBufferAddress[BLU_SINGLE_REC_MESSAGE_SIZE/2
 163:Drivers/BluetoothComm/BluetoothClassicComm.c **** 		}else{
 164:Drivers/BluetoothComm/BluetoothClassicComm.c **** 			RB_Receive_GetNextMessageAddress(&BleMainReceiveRingBuffer,&MessageReceiveBufferAddress);
 165:Drivers/BluetoothComm/BluetoothClassicComm.c **** 			HAL_UARTEx_ReceiveToIdle_DMA(&huart1, MessageReceiveBufferAddress, BLU_SINGLE_REC_MESSAGE_SIZE);
 166:Drivers/BluetoothComm/BluetoothClassicComm.c **** 		}
 167:Drivers/BluetoothComm/BluetoothClassicComm.c **** 
 168:Drivers/BluetoothComm/BluetoothClassicComm.c **** 
 169:Drivers/BluetoothComm/BluetoothClassicComm.c **** 
 170:Drivers/BluetoothComm/BluetoothClassicComm.c ****  	}
 171:Drivers/BluetoothComm/BluetoothClassicComm.c **** }
 172:Drivers/BluetoothComm/BluetoothClassicComm.c **** 
 173:Drivers/BluetoothComm/BluetoothClassicComm.c **** 
 174:Drivers/BluetoothComm/BluetoothClassicComm.c **** /*!
 175:Drivers/BluetoothComm/BluetoothClassicComm.c ****  ************************************************************************************************
 176:Drivers/BluetoothComm/BluetoothClassicComm.c ****  * \brief RB_Transmit_Read Function to read data from ring buffer
 177:Drivers/BluetoothComm/BluetoothClassicComm.c ****  * \details --
 178:Drivers/BluetoothComm/BluetoothClassicComm.c ****  * \param RingBuffer_t *Buf - pointer to Ring Buffer structure
 179:Drivers/BluetoothComm/BluetoothClassicComm.c ****  * \param out MessageSize - size of the "BleLogData" (return value)
 180:Drivers/BluetoothComm/BluetoothClassicComm.c ****  * \param out MessagePointer - pointer to the message stored in RingBuffer (return value)
 181:Drivers/BluetoothComm/BluetoothClassicComm.c ****  *
 182:Drivers/BluetoothComm/BluetoothClassicComm.c ****  * */
 183:Drivers/BluetoothComm/BluetoothClassicComm.c **** static BluRingBufferStatus_t RB_Transmit_Read(BluRingBufferTransmit_t *Buf, uint8_t *MessageSize, u
 184:Drivers/BluetoothComm/BluetoothClassicComm.c **** {
  29              		.loc 1 184 1 view -0
  30              		.cfi_startproc
  31              		@ args = 0, pretend = 0, frame = 0
  32              		@ frame_needed = 0, uses_anonymous_args = 0
  33              		@ link register save eliminated.
 185:Drivers/BluetoothComm/BluetoothClassicComm.c **** 	// Check if Tail hit Head
 186:Drivers/BluetoothComm/BluetoothClassicComm.c **** 	if(Buf->Head == Buf->Tail)
  34              		.loc 1 186 2 view .LVU1
  35              		.loc 1 186 8 is_stmt 0 view .LVU2
  36 0000 B0F800C0 		ldrh	ip, [r0]
  37              		.loc 1 186 21 view .LVU3
  38 0004 4388     		ldrh	r3, [r0, #2]
  39              		.loc 1 186 4 view .LVU4
  40 0006 9C45     		cmp	ip, r3
  41 0008 14D0     		beq	.L3
 187:Drivers/BluetoothComm/BluetoothClassicComm.c **** 	{
 188:Drivers/BluetoothComm/BluetoothClassicComm.c **** 		// If yes - there is nothing to read
ARM GAS  C:\Users\Teodor\AppData\Local\Temp\cczmnjKd.s 			page 5


 189:Drivers/BluetoothComm/BluetoothClassicComm.c **** 		return RB_ERROR;
 190:Drivers/BluetoothComm/BluetoothClassicComm.c **** 	}
 191:Drivers/BluetoothComm/BluetoothClassicComm.c **** 
 192:Drivers/BluetoothComm/BluetoothClassicComm.c **** 	// Write current value from buffer to pointer from argument
 193:Drivers/BluetoothComm/BluetoothClassicComm.c **** 	*MessageSize = Buf->MessageSize[Buf->Tail];
  42              		.loc 1 193 2 is_stmt 1 view .LVU5
  43              		.loc 1 193 33 is_stmt 0 view .LVU6
  44 000a 0344     		add	r3, r3, r0
  45 000c 1B79     		ldrb	r3, [r3, #4]	@ zero_extendqisi2
  46              		.loc 1 193 15 view .LVU7
  47 000e 0B70     		strb	r3, [r1]
 194:Drivers/BluetoothComm/BluetoothClassicComm.c **** 	*MessagePointer = &BluMainTransmitMessagesTab[Buf->Tail][0];
  48              		.loc 1 194 2 is_stmt 1 view .LVU8
  49              		.loc 1 194 51 is_stmt 0 view .LVU9
  50 0010 B0F802C0 		ldrh	ip, [r0, #2]
  51              		.loc 1 194 20 view .LVU10
  52 0014 6421     		movs	r1, #100
  53              	.LVL1:
  54              		.loc 1 194 20 view .LVU11
  55 0016 084B     		ldr	r3, .L4
  56 0018 01FB0C33 		mla	r3, r1, ip, r3
  57              		.loc 1 194 18 view .LVU12
  58 001c 1360     		str	r3, [r2]
 195:Drivers/BluetoothComm/BluetoothClassicComm.c **** 
 196:Drivers/BluetoothComm/BluetoothClassicComm.c **** 	// Calculate new Tail pointer
 197:Drivers/BluetoothComm/BluetoothClassicComm.c **** 	Buf->Tail = (Buf->Tail + 1) % BLU_TRANSMIT_RING_BUFFER_SIZE;
  59              		.loc 1 197 2 is_stmt 1 view .LVU13
  60              		.loc 1 197 18 is_stmt 0 view .LVU14
  61 001e 4288     		ldrh	r2, [r0, #2]
  62              	.LVL2:
  63              		.loc 1 197 25 view .LVU15
  64 0020 0132     		adds	r2, r2, #1
  65              		.loc 1 197 30 view .LVU16
  66 0022 064B     		ldr	r3, .L4+4
  67 0024 83FB02C3 		smull	ip, r3, r3, r2
  68 0028 5B11     		asrs	r3, r3, #5
  69 002a 01FB1323 		mls	r3, r1, r3, r2
  70              		.loc 1 197 12 view .LVU17
  71 002e 4380     		strh	r3, [r0, #2]	@ movhi
 198:Drivers/BluetoothComm/BluetoothClassicComm.c **** 
 199:Drivers/BluetoothComm/BluetoothClassicComm.c **** 	// Everything is ok - return OK status
 200:Drivers/BluetoothComm/BluetoothClassicComm.c **** 	return RB_OK;
  72              		.loc 1 200 2 is_stmt 1 view .LVU18
  73              		.loc 1 200 9 is_stmt 0 view .LVU19
  74 0030 0020     		movs	r0, #0
  75              	.LVL3:
  76              		.loc 1 200 9 view .LVU20
  77 0032 7047     		bx	lr
  78              	.LVL4:
  79              	.L3:
 189:Drivers/BluetoothComm/BluetoothClassicComm.c **** 	}
  80              		.loc 1 189 10 view .LVU21
  81 0034 0120     		movs	r0, #1
  82              	.LVL5:
 201:Drivers/BluetoothComm/BluetoothClassicComm.c **** }
  83              		.loc 1 201 1 view .LVU22
  84 0036 7047     		bx	lr
ARM GAS  C:\Users\Teodor\AppData\Local\Temp\cczmnjKd.s 			page 6


  85              	.L5:
  86              		.align	2
  87              	.L4:
  88 0038 00000000 		.word	BluMainTransmitMessagesTab
  89 003c 1F85EB51 		.word	1374389535
  90              		.cfi_endproc
  91              	.LFE134:
  93              		.section	.text.RB_Transmit_Write,"ax",%progbits
  94              		.align	1
  95              		.syntax unified
  96              		.thumb
  97              		.thumb_func
  99              	RB_Transmit_Write:
 100              	.LVL6:
 101              	.LFB135:
 202:Drivers/BluetoothComm/BluetoothClassicComm.c **** 
 203:Drivers/BluetoothComm/BluetoothClassicComm.c **** 
 204:Drivers/BluetoothComm/BluetoothClassicComm.c **** /*!
 205:Drivers/BluetoothComm/BluetoothClassicComm.c ****  ************************************************************************************************
 206:Drivers/BluetoothComm/BluetoothClassicComm.c ****  * \brief RB_Transmit_Write
 207:Drivers/BluetoothComm/BluetoothClassicComm.c ****  * \details --
 208:Drivers/BluetoothComm/BluetoothClassicComm.c ****  * \param in RingBuffer_t *Buf - pointer to Ring Buffer structure
 209:Drivers/BluetoothComm/BluetoothClassicComm.c ****  * \param in BleLogData - pointer to the data stored in RingBuffer
 210:Drivers/BluetoothComm/BluetoothClassicComm.c ****  * \param in MessageSize - size of the "BleLogData"
 211:Drivers/BluetoothComm/BluetoothClassicComm.c ****  ************************************************************************************************/
 212:Drivers/BluetoothComm/BluetoothClassicComm.c **** static BluRingBufferStatus_t RB_Transmit_Write(BluRingBufferTransmit_t *Buf,uint8_t *DataToWrite, u
 213:Drivers/BluetoothComm/BluetoothClassicComm.c **** {
 102              		.loc 1 213 1 is_stmt 1 view -0
 103              		.cfi_startproc
 104              		@ args = 0, pretend = 0, frame = 0
 105              		@ frame_needed = 0, uses_anonymous_args = 0
 106              		.loc 1 213 1 is_stmt 0 view .LVU24
 107 0000 10B5     		push	{r4, lr}
 108              	.LCFI0:
 109              		.cfi_def_cfa_offset 8
 110              		.cfi_offset 4, -8
 111              		.cfi_offset 14, -4
 214:Drivers/BluetoothComm/BluetoothClassicComm.c **** 	uint16_t ActualWriteIndex;
 112              		.loc 1 214 2 is_stmt 1 view .LVU25
 215:Drivers/BluetoothComm/BluetoothClassicComm.c **** 
 216:Drivers/BluetoothComm/BluetoothClassicComm.c **** 	// Calculate new Head pointer value
 217:Drivers/BluetoothComm/BluetoothClassicComm.c **** 	uint16_t HeadTmp = (Buf->Head + 1) % BLU_TRANSMIT_RING_BUFFER_SIZE;
 113              		.loc 1 217 2 view .LVU26
 114              		.loc 1 217 25 is_stmt 0 view .LVU27
 115 0002 0488     		ldrh	r4, [r0]
 116              		.loc 1 217 32 view .LVU28
 117 0004 04F1010C 		add	ip, r4, #1
 118              		.loc 1 217 37 view .LVU29
 119 0008 104B     		ldr	r3, .L12
 120 000a 83FB0CE3 		smull	lr, r3, r3, ip
 121 000e 5B11     		asrs	r3, r3, #5
 122 0010 4FF0640E 		mov	lr, #100
 123 0014 0EFB13C3 		mls	r3, lr, r3, ip
 124              		.loc 1 217 11 view .LVU30
 125 0018 9BB2     		uxth	r3, r3
 126              	.LVL7:
 218:Drivers/BluetoothComm/BluetoothClassicComm.c **** 
ARM GAS  C:\Users\Teodor\AppData\Local\Temp\cczmnjKd.s 			page 7


 219:Drivers/BluetoothComm/BluetoothClassicComm.c **** 	// Check if there is one free space ahead the Head buffer
 220:Drivers/BluetoothComm/BluetoothClassicComm.c **** 	if(HeadTmp == Buf->Tail)
 127              		.loc 1 220 2 is_stmt 1 view .LVU31
 128              		.loc 1 220 19 is_stmt 0 view .LVU32
 129 001a B0F802C0 		ldrh	ip, [r0, #2]
 130              		.loc 1 220 4 view .LVU33
 131 001e 9C45     		cmp	ip, r3
 132 0020 12D0     		beq	.L10
 221:Drivers/BluetoothComm/BluetoothClassicComm.c **** 	{
 222:Drivers/BluetoothComm/BluetoothClassicComm.c **** 		// There is no space in the buffer - return an error
 223:Drivers/BluetoothComm/BluetoothClassicComm.c **** 		return RB_ERROR;
 224:Drivers/BluetoothComm/BluetoothClassicComm.c **** 	}
 225:Drivers/BluetoothComm/BluetoothClassicComm.c **** 
 226:Drivers/BluetoothComm/BluetoothClassicComm.c **** 	ActualWriteIndex = Buf->Head;
 133              		.loc 1 226 2 is_stmt 1 view .LVU34
 134              	.LVL8:
 227:Drivers/BluetoothComm/BluetoothClassicComm.c **** 	Buf->Head = HeadTmp;
 135              		.loc 1 227 2 view .LVU35
 136              		.loc 1 227 12 is_stmt 0 view .LVU36
 137 0022 0380     		strh	r3, [r0]	@ movhi
 138              	.LVL9:
 228:Drivers/BluetoothComm/BluetoothClassicComm.c **** 	// Store a value into the buffer
 229:Drivers/BluetoothComm/BluetoothClassicComm.c **** 	Buf->MessageSize[ActualWriteIndex] = MessageSize;
 139              		.loc 1 229 2 is_stmt 1 view .LVU37
 140              		.loc 1 229 37 is_stmt 0 view .LVU38
 141 0024 2044     		add	r0, r0, r4
 142              	.LVL10:
 143              		.loc 1 229 37 view .LVU39
 144 0026 0271     		strb	r2, [r0, #4]
 230:Drivers/BluetoothComm/BluetoothClassicComm.c **** 
 231:Drivers/BluetoothComm/BluetoothClassicComm.c **** 	/*Copy the values to new buffer*/
 232:Drivers/BluetoothComm/BluetoothClassicComm.c **** 	for(int i=0; i<MessageSize; i++)
 145              		.loc 1 232 2 is_stmt 1 view .LVU40
 146              	.LBB2:
 147              		.loc 1 232 6 view .LVU41
 148              	.LVL11:
 149              		.loc 1 232 10 is_stmt 0 view .LVU42
 150 0028 0023     		movs	r3, #0
 151              	.LVL12:
 152              		.loc 1 232 2 view .LVU43
 153 002a 09E0     		b	.L8
 154              	.LVL13:
 155              	.L9:
 233:Drivers/BluetoothComm/BluetoothClassicComm.c **** 	{
 234:Drivers/BluetoothComm/BluetoothClassicComm.c **** 		BluMainTransmitMessagesTab[ActualWriteIndex][i] = DataToWrite[i];
 156              		.loc 1 234 3 is_stmt 1 discriminator 3 view .LVU44
 157              		.loc 1 234 64 is_stmt 0 discriminator 3 view .LVU45
 158 002c 11F803C0 		ldrb	ip, [r1, r3]	@ zero_extendqisi2
 159              		.loc 1 234 51 discriminator 3 view .LVU46
 160 0030 0748     		ldr	r0, .L12+4
 161 0032 4FF0640E 		mov	lr, #100
 162              		.loc 1 234 51 discriminator 3 view .LVU47
 163 0036 0EFB0400 		mla	r0, lr, r4, r0
 164 003a 00F803C0 		strb	ip, [r0, r3]
 232:Drivers/BluetoothComm/BluetoothClassicComm.c **** 	{
 165              		.loc 1 232 30 is_stmt 1 discriminator 3 view .LVU48
 232:Drivers/BluetoothComm/BluetoothClassicComm.c **** 	{
ARM GAS  C:\Users\Teodor\AppData\Local\Temp\cczmnjKd.s 			page 8


 166              		.loc 1 232 31 is_stmt 0 discriminator 3 view .LVU49
 167 003e 0133     		adds	r3, r3, #1
 168              	.LVL14:
 169              	.L8:
 232:Drivers/BluetoothComm/BluetoothClassicComm.c **** 	{
 170              		.loc 1 232 15 is_stmt 1 discriminator 1 view .LVU50
 232:Drivers/BluetoothComm/BluetoothClassicComm.c **** 	{
 171              		.loc 1 232 2 is_stmt 0 discriminator 1 view .LVU51
 172 0040 9A42     		cmp	r2, r3
 173 0042 F3DC     		bgt	.L9
 174              	.LBE2:
 235:Drivers/BluetoothComm/BluetoothClassicComm.c **** 	}
 236:Drivers/BluetoothComm/BluetoothClassicComm.c **** 	// Everything is ok - return OK status
 237:Drivers/BluetoothComm/BluetoothClassicComm.c **** 	return RB_OK;
 175              		.loc 1 237 9 view .LVU52
 176 0044 0020     		movs	r0, #0
 177              	.LVL15:
 178              	.L7:
 238:Drivers/BluetoothComm/BluetoothClassicComm.c **** }
 179              		.loc 1 238 1 view .LVU53
 180 0046 10BD     		pop	{r4, pc}
 181              	.LVL16:
 182              	.L10:
 223:Drivers/BluetoothComm/BluetoothClassicComm.c **** 	}
 183              		.loc 1 223 10 view .LVU54
 184 0048 0120     		movs	r0, #1
 185              	.LVL17:
 223:Drivers/BluetoothComm/BluetoothClassicComm.c **** 	}
 186              		.loc 1 223 10 view .LVU55
 187 004a FCE7     		b	.L7
 188              	.L13:
 189              		.align	2
 190              	.L12:
 191 004c 1F85EB51 		.word	1374389535
 192 0050 00000000 		.word	BluMainTransmitMessagesTab
 193              		.cfi_endproc
 194              	.LFE135:
 196              		.section	.text.RB_Receive_GetNextMessageAddress,"ax",%progbits
 197              		.align	1
 198              		.syntax unified
 199              		.thumb
 200              		.thumb_func
 202              	RB_Receive_GetNextMessageAddress:
 203              	.LVL18:
 204              	.LFB136:
 239:Drivers/BluetoothComm/BluetoothClassicComm.c **** 
 240:Drivers/BluetoothComm/BluetoothClassicComm.c **** /*!
 241:Drivers/BluetoothComm/BluetoothClassicComm.c ****  ************************************************************************************************
 242:Drivers/BluetoothComm/BluetoothClassicComm.c ****  * \brief RB_Receive_GetNextMessageAddress
 243:Drivers/BluetoothComm/BluetoothClassicComm.c ****  * \details Function used to work with DMA - direct write to ring buffer by DMA
 244:Drivers/BluetoothComm/BluetoothClassicComm.c ****  * \param in WriteIndex - Current Write index in Ring Buffer where the 
 245:Drivers/BluetoothComm/BluetoothClassicComm.c ****  *                          value should be transmitted for example by DMA
 246:Drivers/BluetoothComm/BluetoothClassicComm.c ****  ************************************************************************************************/
 247:Drivers/BluetoothComm/BluetoothClassicComm.c **** static BluRingBufferStatus_t RB_Receive_GetNextMessageAddress(BluRingBufferReceive_t *Buf, uint8_t 
 248:Drivers/BluetoothComm/BluetoothClassicComm.c **** {
 205              		.loc 1 248 1 is_stmt 1 view -0
 206              		.cfi_startproc
ARM GAS  C:\Users\Teodor\AppData\Local\Temp\cczmnjKd.s 			page 9


 207              		@ args = 0, pretend = 0, frame = 0
 208              		@ frame_needed = 0, uses_anonymous_args = 0
 209              		.loc 1 248 1 is_stmt 0 view .LVU57
 210 0000 10B5     		push	{r4, lr}
 211              	.LCFI1:
 212              		.cfi_def_cfa_offset 8
 213              		.cfi_offset 4, -8
 214              		.cfi_offset 14, -4
 249:Drivers/BluetoothComm/BluetoothClassicComm.c **** 	static uint8_t DefaultBlindBuffer[20];
 215              		.loc 1 249 2 is_stmt 1 view .LVU58
 250:Drivers/BluetoothComm/BluetoothClassicComm.c **** 
 251:Drivers/BluetoothComm/BluetoothClassicComm.c **** 
 252:Drivers/BluetoothComm/BluetoothClassicComm.c **** 
 253:Drivers/BluetoothComm/BluetoothClassicComm.c **** 	/*Mark previous message as ready to read*/
 254:Drivers/BluetoothComm/BluetoothClassicComm.c **** 	Buf->ReadyToRead[Buf->Head] = true;
 216              		.loc 1 254 2 view .LVU59
 217              		.loc 1 254 22 is_stmt 0 view .LVU60
 218 0002 0288     		ldrh	r2, [r0]
 219              		.loc 1 254 30 view .LVU61
 220 0004 8318     		adds	r3, r0, r2
 221 0006 0124     		movs	r4, #1
 222 0008 83F86840 		strb	r4, [r3, #104]
 255:Drivers/BluetoothComm/BluetoothClassicComm.c **** 
 256:Drivers/BluetoothComm/BluetoothClassicComm.c **** 	// Calculate new Head pointer value
 257:Drivers/BluetoothComm/BluetoothClassicComm.c **** 	uint16_t HeadTmp = (Buf->Head + 1) % BLU_RECEIVE_RING_BUFFER_SIZE;
 223              		.loc 1 257 2 is_stmt 1 view .LVU62
 224              		.loc 1 257 32 is_stmt 0 view .LVU63
 225 000c 2244     		add	r2, r2, r4
 226              		.loc 1 257 37 view .LVU64
 227 000e 104B     		ldr	r3, .L19
 228 0010 83FB0243 		smull	r4, r3, r3, r2
 229 0014 5B11     		asrs	r3, r3, #5
 230 0016 6424     		movs	r4, #100
 231 0018 04FB1323 		mls	r3, r4, r3, r2
 232              		.loc 1 257 11 view .LVU65
 233 001c 1FFA83FC 		uxth	ip, r3
 234              	.LVL19:
 258:Drivers/BluetoothComm/BluetoothClassicComm.c **** 
 259:Drivers/BluetoothComm/BluetoothClassicComm.c **** 	// Check if there is one free space ahead the Head buffer
 260:Drivers/BluetoothComm/BluetoothClassicComm.c **** 	if(HeadTmp == Buf->Tail)
 235              		.loc 1 260 2 is_stmt 1 view .LVU66
 236              		.loc 1 260 19 is_stmt 0 view .LVU67
 237 0020 4288     		ldrh	r2, [r0, #2]
 238              		.loc 1 260 4 view .LVU68
 239 0022 6245     		cmp	r2, ip
 240 0024 10D0     		beq	.L18
 261:Drivers/BluetoothComm/BluetoothClassicComm.c **** 	{
 262:Drivers/BluetoothComm/BluetoothClassicComm.c **** 		/*Even if buffer is full data must be received somewhere to don't crush application/ dma*/
 263:Drivers/BluetoothComm/BluetoothClassicComm.c **** 		*WriteAddress = DefaultBlindBuffer;
 264:Drivers/BluetoothComm/BluetoothClassicComm.c **** 		// There is no space in the buffer - return an error
 265:Drivers/BluetoothComm/BluetoothClassicComm.c **** 		return RB_ERROR;
 266:Drivers/BluetoothComm/BluetoothClassicComm.c **** 	}
 267:Drivers/BluetoothComm/BluetoothClassicComm.c **** 
 268:Drivers/BluetoothComm/BluetoothClassicComm.c **** 	Buf->ReadyToRead[HeadTmp] = false;
 241              		.loc 1 268 2 is_stmt 1 view .LVU69
 242 0026 9BB2     		uxth	r3, r3
 243              		.loc 1 268 28 is_stmt 0 view .LVU70
ARM GAS  C:\Users\Teodor\AppData\Local\Temp\cczmnjKd.s 			page 10


 244 0028 C418     		adds	r4, r0, r3
 245 002a 0022     		movs	r2, #0
 246 002c 84F86820 		strb	r2, [r4, #104]
 269:Drivers/BluetoothComm/BluetoothClassicComm.c **** 	Buf->MessageSize[HeadTmp] = BLU_SINGLE_REC_MESSAGE_SIZE;
 247              		.loc 1 269 2 is_stmt 1 view .LVU71
 248              		.loc 1 269 28 is_stmt 0 view .LVU72
 249 0030 4FF0640E 		mov	lr, #100
 250 0034 84F804E0 		strb	lr, [r4, #4]
 270:Drivers/BluetoothComm/BluetoothClassicComm.c **** 	Buf->Head = HeadTmp;
 251              		.loc 1 270 2 is_stmt 1 view .LVU73
 252              		.loc 1 270 12 is_stmt 0 view .LVU74
 253 0038 A0F800C0 		strh	ip, [r0]	@ movhi
 271:Drivers/BluetoothComm/BluetoothClassicComm.c **** 
 272:Drivers/BluetoothComm/BluetoothClassicComm.c **** 	*WriteAddress = &BluMainReceiveMessagesTab[HeadTmp][0];
 254              		.loc 1 272 2 is_stmt 1 view .LVU75
 255              		.loc 1 272 18 is_stmt 0 view .LVU76
 256 003c 0548     		ldr	r0, .L19+4
 257              	.LVL20:
 258              		.loc 1 272 18 view .LVU77
 259 003e 0EFB0303 		mla	r3, lr, r3, r0
 260              		.loc 1 272 16 view .LVU78
 261 0042 0B60     		str	r3, [r1]
 273:Drivers/BluetoothComm/BluetoothClassicComm.c **** 
 274:Drivers/BluetoothComm/BluetoothClassicComm.c **** 	// Everything is ok - return OK status
 275:Drivers/BluetoothComm/BluetoothClassicComm.c **** 	return RB_OK;
 262              		.loc 1 275 2 is_stmt 1 view .LVU79
 263              		.loc 1 275 9 is_stmt 0 view .LVU80
 264 0044 1046     		mov	r0, r2
 265              	.L16:
 276:Drivers/BluetoothComm/BluetoothClassicComm.c **** }
 266              		.loc 1 276 1 view .LVU81
 267 0046 10BD     		pop	{r4, pc}
 268              	.LVL21:
 269              	.L18:
 263:Drivers/BluetoothComm/BluetoothClassicComm.c **** 		// There is no space in the buffer - return an error
 270              		.loc 1 263 3 is_stmt 1 view .LVU82
 263:Drivers/BluetoothComm/BluetoothClassicComm.c **** 		// There is no space in the buffer - return an error
 271              		.loc 1 263 17 is_stmt 0 view .LVU83
 272 0048 034B     		ldr	r3, .L19+8
 273 004a 0B60     		str	r3, [r1]
 265:Drivers/BluetoothComm/BluetoothClassicComm.c **** 	}
 274              		.loc 1 265 3 is_stmt 1 view .LVU84
 265:Drivers/BluetoothComm/BluetoothClassicComm.c **** 	}
 275              		.loc 1 265 10 is_stmt 0 view .LVU85
 276 004c 0120     		movs	r0, #1
 277              	.LVL22:
 265:Drivers/BluetoothComm/BluetoothClassicComm.c **** 	}
 278              		.loc 1 265 10 view .LVU86
 279 004e FAE7     		b	.L16
 280              	.L20:
 281              		.align	2
 282              	.L19:
 283 0050 1F85EB51 		.word	1374389535
 284 0054 00000000 		.word	BluMainReceiveMessagesTab
 285 0058 00000000 		.word	.LANCHOR0
 286              		.cfi_endproc
 287              	.LFE136:
ARM GAS  C:\Users\Teodor\AppData\Local\Temp\cczmnjKd.s 			page 11


 289              		.section	.text.RB_Receive_Read,"ax",%progbits
 290              		.align	1
 291              		.syntax unified
 292              		.thumb
 293              		.thumb_func
 295              	RB_Receive_Read:
 296              	.LVL23:
 297              	.LFB137:
 277:Drivers/BluetoothComm/BluetoothClassicComm.c **** 
 278:Drivers/BluetoothComm/BluetoothClassicComm.c **** 
 279:Drivers/BluetoothComm/BluetoothClassicComm.c **** /*!
 280:Drivers/BluetoothComm/BluetoothClassicComm.c ****  ************************************************************************************************
 281:Drivers/BluetoothComm/BluetoothClassicComm.c ****  * \brief RB_Transmit_Read Function to read data from ring buffer
 282:Drivers/BluetoothComm/BluetoothClassicComm.c ****  * \details --
 283:Drivers/BluetoothComm/BluetoothClassicComm.c ****  * \param RingBuffer_t *Buf - pointer to Ring Buffer structure
 284:Drivers/BluetoothComm/BluetoothClassicComm.c ****  * \param out MessageSize - size of the "BleLogData" (return value)
 285:Drivers/BluetoothComm/BluetoothClassicComm.c ****  * \param out MessagePointer - pointer to the message stored in RingBuffer (return value)
 286:Drivers/BluetoothComm/BluetoothClassicComm.c ****  *
 287:Drivers/BluetoothComm/BluetoothClassicComm.c ****  * */
 288:Drivers/BluetoothComm/BluetoothClassicComm.c **** static BluRingBufferStatus_t RB_Receive_Read(BluRingBufferReceive_t *Buf, uint8_t *MessageSize, uin
 289:Drivers/BluetoothComm/BluetoothClassicComm.c **** {
 298              		.loc 1 289 1 is_stmt 1 view -0
 299              		.cfi_startproc
 300              		@ args = 0, pretend = 0, frame = 0
 301              		@ frame_needed = 0, uses_anonymous_args = 0
 302              		@ link register save eliminated.
 303              		.loc 1 289 1 is_stmt 0 view .LVU88
 304 0000 10B4     		push	{r4}
 305              	.LCFI2:
 306              		.cfi_def_cfa_offset 4
 307              		.cfi_offset 4, -4
 290:Drivers/BluetoothComm/BluetoothClassicComm.c **** 
 291:Drivers/BluetoothComm/BluetoothClassicComm.c **** 	if(Buf->ReadyToRead[Buf->Tail] == false)
 308              		.loc 1 291 2 is_stmt 1 view .LVU89
 309              		.loc 1 291 25 is_stmt 0 view .LVU90
 310 0002 4388     		ldrh	r3, [r0, #2]
 311              		.loc 1 291 21 view .LVU91
 312 0004 C418     		adds	r4, r0, r3
 313 0006 94F86840 		ldrb	r4, [r4, #104]	@ zero_extendqisi2
 314              		.loc 1 291 4 view .LVU92
 315 000a ECB1     		cbz	r4, .L23
 292:Drivers/BluetoothComm/BluetoothClassicComm.c **** 	{
 293:Drivers/BluetoothComm/BluetoothClassicComm.c **** 		/*Any message in ring buffer isn't ready to read*/
 294:Drivers/BluetoothComm/BluetoothClassicComm.c **** 		return RB_ERROR;
 295:Drivers/BluetoothComm/BluetoothClassicComm.c **** 	}
 296:Drivers/BluetoothComm/BluetoothClassicComm.c **** 	/*Mark again as not ready to read*/
 297:Drivers/BluetoothComm/BluetoothClassicComm.c **** 	Buf->ReadyToRead[Buf->Tail] = false;
 316              		.loc 1 297 2 is_stmt 1 view .LVU93
 317              		.loc 1 297 30 is_stmt 0 view .LVU94
 318 000c 00EB030C 		add	ip, r0, r3
 319 0010 0024     		movs	r4, #0
 320 0012 8CF86840 		strb	r4, [ip, #104]
 298:Drivers/BluetoothComm/BluetoothClassicComm.c **** 
 299:Drivers/BluetoothComm/BluetoothClassicComm.c **** 	// Check if Tail hit Head
 300:Drivers/BluetoothComm/BluetoothClassicComm.c **** 	if(Buf->Head == Buf->Tail)
 321              		.loc 1 300 2 is_stmt 1 view .LVU95
 322              		.loc 1 300 8 is_stmt 0 view .LVU96
ARM GAS  C:\Users\Teodor\AppData\Local\Temp\cczmnjKd.s 			page 12


 323 0016 0488     		ldrh	r4, [r0]
 324              		.loc 1 300 4 view .LVU97
 325 0018 A342     		cmp	r3, r4
 326 001a 17D0     		beq	.L24
 301:Drivers/BluetoothComm/BluetoothClassicComm.c **** 	{
 302:Drivers/BluetoothComm/BluetoothClassicComm.c **** 		// If yes - there is nothing to read
 303:Drivers/BluetoothComm/BluetoothClassicComm.c **** 		return RB_ERROR;
 304:Drivers/BluetoothComm/BluetoothClassicComm.c **** 	}
 305:Drivers/BluetoothComm/BluetoothClassicComm.c **** 
 306:Drivers/BluetoothComm/BluetoothClassicComm.c **** 
 307:Drivers/BluetoothComm/BluetoothClassicComm.c **** 
 308:Drivers/BluetoothComm/BluetoothClassicComm.c **** 	// Write current value from buffer to pointer from argument
 309:Drivers/BluetoothComm/BluetoothClassicComm.c **** 	*MessageSize = Buf->MessageSize[Buf->Tail];
 327              		.loc 1 309 2 is_stmt 1 view .LVU98
 328              		.loc 1 309 33 is_stmt 0 view .LVU99
 329 001c 9CF80430 		ldrb	r3, [ip, #4]	@ zero_extendqisi2
 330              		.loc 1 309 15 view .LVU100
 331 0020 0B70     		strb	r3, [r1]
 310:Drivers/BluetoothComm/BluetoothClassicComm.c **** 	*MessagePointer = &BluMainReceiveMessagesTab[Buf->Tail][0];
 332              		.loc 1 310 2 is_stmt 1 view .LVU101
 333              		.loc 1 310 50 is_stmt 0 view .LVU102
 334 0022 4488     		ldrh	r4, [r0, #2]
 335              		.loc 1 310 20 view .LVU103
 336 0024 6421     		movs	r1, #100
 337              	.LVL24:
 338              		.loc 1 310 20 view .LVU104
 339 0026 0A4B     		ldr	r3, .L26
 340 0028 01FB0433 		mla	r3, r1, r4, r3
 341              		.loc 1 310 18 view .LVU105
 342 002c 1360     		str	r3, [r2]
 311:Drivers/BluetoothComm/BluetoothClassicComm.c **** 
 312:Drivers/BluetoothComm/BluetoothClassicComm.c **** 	// Calculate new Tail pointer
 313:Drivers/BluetoothComm/BluetoothClassicComm.c **** 	Buf->Tail = (Buf->Tail + 1) % BLU_RECEIVE_RING_BUFFER_SIZE;
 343              		.loc 1 313 2 is_stmt 1 view .LVU106
 344              		.loc 1 313 18 is_stmt 0 view .LVU107
 345 002e 4288     		ldrh	r2, [r0, #2]
 346              	.LVL25:
 347              		.loc 1 313 25 view .LVU108
 348 0030 0132     		adds	r2, r2, #1
 349              		.loc 1 313 30 view .LVU109
 350 0032 084B     		ldr	r3, .L26+4
 351 0034 83FB0243 		smull	r4, r3, r3, r2
 352 0038 5B11     		asrs	r3, r3, #5
 353 003a 01FB1323 		mls	r3, r1, r3, r2
 354              		.loc 1 313 12 view .LVU110
 355 003e 4380     		strh	r3, [r0, #2]	@ movhi
 314:Drivers/BluetoothComm/BluetoothClassicComm.c **** 
 315:Drivers/BluetoothComm/BluetoothClassicComm.c **** 	// Everything is ok - return OK status
 316:Drivers/BluetoothComm/BluetoothClassicComm.c **** 	return RB_OK;
 356              		.loc 1 316 2 is_stmt 1 view .LVU111
 357              		.loc 1 316 9 is_stmt 0 view .LVU112
 358 0040 0020     		movs	r0, #0
 359              	.LVL26:
 360              	.L22:
 317:Drivers/BluetoothComm/BluetoothClassicComm.c **** }
 361              		.loc 1 317 1 view .LVU113
 362 0042 5DF8044B 		ldr	r4, [sp], #4
ARM GAS  C:\Users\Teodor\AppData\Local\Temp\cczmnjKd.s 			page 13


 363              	.LCFI3:
 364              		.cfi_remember_state
 365              		.cfi_restore 4
 366              		.cfi_def_cfa_offset 0
 367 0046 7047     		bx	lr
 368              	.LVL27:
 369              	.L23:
 370              	.LCFI4:
 371              		.cfi_restore_state
 294:Drivers/BluetoothComm/BluetoothClassicComm.c **** 	}
 372              		.loc 1 294 10 view .LVU114
 373 0048 0120     		movs	r0, #1
 374              	.LVL28:
 294:Drivers/BluetoothComm/BluetoothClassicComm.c **** 	}
 375              		.loc 1 294 10 view .LVU115
 376 004a FAE7     		b	.L22
 377              	.LVL29:
 378              	.L24:
 303:Drivers/BluetoothComm/BluetoothClassicComm.c **** 	}
 379              		.loc 1 303 10 view .LVU116
 380 004c 0120     		movs	r0, #1
 381              	.LVL30:
 303:Drivers/BluetoothComm/BluetoothClassicComm.c **** 	}
 382              		.loc 1 303 10 view .LVU117
 383 004e F8E7     		b	.L22
 384              	.L27:
 385              		.align	2
 386              	.L26:
 387 0050 00000000 		.word	BluMainReceiveMessagesTab
 388 0054 1F85EB51 		.word	1374389535
 389              		.cfi_endproc
 390              	.LFE137:
 392              		.section	.text.Sim_Create_XY_FakeMap,"ax",%progbits
 393              		.align	1
 394              		.syntax unified
 395              		.thumb
 396              		.thumb_func
 398              	Sim_Create_XY_FakeMap:
 399              	.LFB140:
 318:Drivers/BluetoothComm/BluetoothClassicComm.c **** 
 319:Drivers/BluetoothComm/BluetoothClassicComm.c **** static BLU_CallStatus_t TransmitLfBaseDataReport(void)
 320:Drivers/BluetoothComm/BluetoothClassicComm.c **** {
 321:Drivers/BluetoothComm/BluetoothClassicComm.c **** 	uint8_t DataBuffer[BLU_SINGLE_MESSAGE_SIZE] = {'B'};
 322:Drivers/BluetoothComm/BluetoothClassicComm.c **** 	static uint8_t _SyncID = 0;
 323:Drivers/BluetoothComm/BluetoothClassicComm.c **** 
 324:Drivers/BluetoothComm/BluetoothClassicComm.c **** 	BLU_CallStatus_t retval = BLU_Ok;
 325:Drivers/BluetoothComm/BluetoothClassicComm.c **** 
 326:Drivers/BluetoothComm/BluetoothClassicComm.c **** 	NewestLfDataReport.SyncId = _SyncID;
 327:Drivers/BluetoothComm/BluetoothClassicComm.c **** 	NewestLfDataReport.ucTimeStamp = HAL_GetTick();
 328:Drivers/BluetoothComm/BluetoothClassicComm.c **** 
 329:Drivers/BluetoothComm/BluetoothClassicComm.c **** 	DataBuffer[0] = BLU_BaseDataReport;
 330:Drivers/BluetoothComm/BluetoothClassicComm.c **** 	DataBuffer[1] = NewestLfDataReport.SyncId;
 331:Drivers/BluetoothComm/BluetoothClassicComm.c **** 
 332:Drivers/BluetoothComm/BluetoothClassicComm.c **** 	memcpy(&DataBuffer[2], &NewestLfDataReport.ucTimeStamp,54);
 333:Drivers/BluetoothComm/BluetoothClassicComm.c **** 
 334:Drivers/BluetoothComm/BluetoothClassicComm.c **** 	if(RB_Transmit_Write(&BluMainTransmitRingBuffer, (uint8_t *)DataBuffer, BLU_SINGLE_MESSAGE_SIZE) !
 335:Drivers/BluetoothComm/BluetoothClassicComm.c **** 	{
ARM GAS  C:\Users\Teodor\AppData\Local\Temp\cczmnjKd.s 			page 14


 336:Drivers/BluetoothComm/BluetoothClassicComm.c **** 		LogDroppedFlag = true;
 337:Drivers/BluetoothComm/BluetoothClassicComm.c **** 		retval = BLU_Error;
 338:Drivers/BluetoothComm/BluetoothClassicComm.c **** 	}
 339:Drivers/BluetoothComm/BluetoothClassicComm.c **** 
 340:Drivers/BluetoothComm/BluetoothClassicComm.c **** 	_SyncID++;
 341:Drivers/BluetoothComm/BluetoothClassicComm.c **** 	return retval;
 342:Drivers/BluetoothComm/BluetoothClassicComm.c **** }
 343:Drivers/BluetoothComm/BluetoothClassicComm.c **** 
 344:Drivers/BluetoothComm/BluetoothClassicComm.c **** 
 345:Drivers/BluetoothComm/BluetoothClassicComm.c **** static void Statistics_CreateAndTransmitCommunicationStatistics(void)
 346:Drivers/BluetoothComm/BluetoothClassicComm.c **** {
 347:Drivers/BluetoothComm/BluetoothClassicComm.c **** 	static uint8_t SyncIdStat = 0U;
 348:Drivers/BluetoothComm/BluetoothClassicComm.c **** 
 349:Drivers/BluetoothComm/BluetoothClassicComm.c **** 	static uint8_t RingBufferStatisticsHolder[BLU_SINGLE_MESSAGE_SIZE] = {0};
 350:Drivers/BluetoothComm/BluetoothClassicComm.c **** 
 351:Drivers/BluetoothComm/BluetoothClassicComm.c **** 	static uint16_t MainRingBufferOverFlowCounter = 0U;
 352:Drivers/BluetoothComm/BluetoothClassicComm.c **** 	uint16_t RingBufferRemaninzingSpace = 0U;
 353:Drivers/BluetoothComm/BluetoothClassicComm.c **** 
 354:Drivers/BluetoothComm/BluetoothClassicComm.c **** 	for(int i =0; i<BLU_SINGLE_MESSAGE_SIZE; i++)
 355:Drivers/BluetoothComm/BluetoothClassicComm.c **** 	{
 356:Drivers/BluetoothComm/BluetoothClassicComm.c **** 		RingBufferStatisticsHolder[i] = 0U; /*Sanitize the buffer*/
 357:Drivers/BluetoothComm/BluetoothClassicComm.c **** 	}
 358:Drivers/BluetoothComm/BluetoothClassicComm.c **** 
 359:Drivers/BluetoothComm/BluetoothClassicComm.c **** 	if(true == LogDroppedFlag)
 360:Drivers/BluetoothComm/BluetoothClassicComm.c **** 	{
 361:Drivers/BluetoothComm/BluetoothClassicComm.c **** 		LogDroppedFlag = false;
 362:Drivers/BluetoothComm/BluetoothClassicComm.c **** 		MainRingBufferOverFlowCounter++;
 363:Drivers/BluetoothComm/BluetoothClassicComm.c **** 	}
 364:Drivers/BluetoothComm/BluetoothClassicComm.c **** 
 365:Drivers/BluetoothComm/BluetoothClassicComm.c **** 	RingBufferStatisticsHolder[0] = BLU_CommunicationStats;
 366:Drivers/BluetoothComm/BluetoothClassicComm.c **** 	RingBufferStatisticsHolder[1] = SyncIdStat; /*SyncId*/
 367:Drivers/BluetoothComm/BluetoothClassicComm.c **** 
 368:Drivers/BluetoothComm/BluetoothClassicComm.c **** 	uint32_t ucHelperTime = HAL_GetTick();
 369:Drivers/BluetoothComm/BluetoothClassicComm.c **** 	RingBufferStatisticsHolder[2] = ((uint8_t *)&ucHelperTime)[0];
 370:Drivers/BluetoothComm/BluetoothClassicComm.c **** 	RingBufferStatisticsHolder[3] = ((uint8_t *)&ucHelperTime)[1];
 371:Drivers/BluetoothComm/BluetoothClassicComm.c **** 	RingBufferStatisticsHolder[4] = ((uint8_t *)&ucHelperTime)[2];
 372:Drivers/BluetoothComm/BluetoothClassicComm.c **** 	RingBufferStatisticsHolder[5] = ((uint8_t *)&ucHelperTime)[3];
 373:Drivers/BluetoothComm/BluetoothClassicComm.c **** 
 374:Drivers/BluetoothComm/BluetoothClassicComm.c **** 	RingBufferRemaninzingSpace = BLU_TRANSMIT_RING_BUFFER_SIZE - (BluMainTransmitRingBuffer.Head - Blu
 375:Drivers/BluetoothComm/BluetoothClassicComm.c **** 
 376:Drivers/BluetoothComm/BluetoothClassicComm.c **** 	RingBufferStatisticsHolder[6] = ((uint8_t *)&RingBufferRemaninzingSpace)[0];
 377:Drivers/BluetoothComm/BluetoothClassicComm.c **** 	RingBufferStatisticsHolder[7] = ((uint8_t *)&RingBufferRemaninzingSpace)[1];
 378:Drivers/BluetoothComm/BluetoothClassicComm.c **** 
 379:Drivers/BluetoothComm/BluetoothClassicComm.c **** 	RingBufferStatisticsHolder[8] = ((uint8_t *)&MainRingBufferOverFlowCounter)[0];
 380:Drivers/BluetoothComm/BluetoothClassicComm.c **** 	RingBufferStatisticsHolder[9] = ((uint8_t *)&MainRingBufferOverFlowCounter)[1];
 381:Drivers/BluetoothComm/BluetoothClassicComm.c **** 
 382:Drivers/BluetoothComm/BluetoothClassicComm.c **** 	RingBufferStatisticsHolder[10] =  ((uint8_t *)&TransmisstedMessagesCounter)[0];
 383:Drivers/BluetoothComm/BluetoothClassicComm.c **** 	RingBufferStatisticsHolder[11] =  ((uint8_t *)&TransmisstedMessagesCounter)[1];
 384:Drivers/BluetoothComm/BluetoothClassicComm.c **** 
 385:Drivers/BluetoothComm/BluetoothClassicComm.c **** 	RingBufferStatisticsHolder[12]  =  ((uint8_t *)&RetransmissionCounter)[0];
 386:Drivers/BluetoothComm/BluetoothClassicComm.c **** 	RingBufferStatisticsHolder[13] =  ((uint8_t *)&RetransmissionCounter)[1];
 387:Drivers/BluetoothComm/BluetoothClassicComm.c **** 
 388:Drivers/BluetoothComm/BluetoothClassicComm.c **** 	HAL_UART_Transmit_DMA(&huart1, RingBufferStatisticsHolder, BLU_SINGLE_MESSAGE_SIZE);
 389:Drivers/BluetoothComm/BluetoothClassicComm.c **** 
 390:Drivers/BluetoothComm/BluetoothClassicComm.c **** 	SyncIdStat++;
 391:Drivers/BluetoothComm/BluetoothClassicComm.c **** }
 392:Drivers/BluetoothComm/BluetoothClassicComm.c **** 
ARM GAS  C:\Users\Teodor\AppData\Local\Temp\cczmnjKd.s 			page 15


 393:Drivers/BluetoothComm/BluetoothClassicComm.c **** 
 394:Drivers/BluetoothComm/BluetoothClassicComm.c **** /*
 395:Drivers/BluetoothComm/BluetoothClassicComm.c ****  **************************************************************************************************
 396:Drivers/BluetoothComm/BluetoothClassicComm.c ****  * exported functions declarations section START
 397:Drivers/BluetoothComm/BluetoothClassicComm.c ****  * exported functions description is added in header file
 398:Drivers/BluetoothComm/BluetoothClassicComm.c ****  **************************************************************************************************
 399:Drivers/BluetoothComm/BluetoothClassicComm.c ****  */
 400:Drivers/BluetoothComm/BluetoothClassicComm.c **** 
 401:Drivers/BluetoothComm/BluetoothClassicComm.c **** static void Sim_Create_XY_FakeMap(void)
 402:Drivers/BluetoothComm/BluetoothClassicComm.c **** {
 400              		.loc 1 402 1 is_stmt 1 view -0
 401              		.cfi_startproc
 402              		@ args = 0, pretend = 0, frame = 0
 403              		@ frame_needed = 0, uses_anonymous_args = 0
 404 0000 10B5     		push	{r4, lr}
 405              	.LCFI5:
 406              		.cfi_def_cfa_offset 8
 407              		.cfi_offset 4, -8
 408              		.cfi_offset 14, -4
 403:Drivers/BluetoothComm/BluetoothClassicComm.c **** 	static uint32_t ExtraShifter = 0u;
 409              		.loc 1 403 2 view .LVU119
 404:Drivers/BluetoothComm/BluetoothClassicComm.c **** 
 405:Drivers/BluetoothComm/BluetoothClassicComm.c **** 	for(int i=0;  i<100; i++)
 410              		.loc 1 405 2 view .LVU120
 411              	.LBB3:
 412              		.loc 1 405 6 view .LVU121
 413              	.LVL31:
 414              		.loc 1 405 10 is_stmt 0 view .LVU122
 415 0002 0024     		movs	r4, #0
 416              		.loc 1 405 2 view .LVU123
 417 0004 20E0     		b	.L29
 418              	.LVL32:
 419              	.L30:
 406:Drivers/BluetoothComm/BluetoothClassicComm.c **** 	{
 407:Drivers/BluetoothComm/BluetoothClassicComm.c **** 		SimFakeXY_MapDat.T[i]=    HAL_GetTick();
 420              		.loc 1 407 3 is_stmt 1 discriminator 3 view .LVU124
 421              		.loc 1 407 29 is_stmt 0 discriminator 3 view .LVU125
 422 0006 FFF7FEFF 		bl	HAL_GetTick
 423              	.LVL33:
 424              		.loc 1 407 24 discriminator 3 view .LVU126
 425 000a 3B4B     		ldr	r3, .L36
 426 000c 04F59662 		add	r2, r4, #1200
 427 0010 23F81200 		strh	r0, [r3, r2, lsl #1]	@ movhi
 408:Drivers/BluetoothComm/BluetoothClassicComm.c **** 		SimFakeXY_MapDat.X[i]=  (float)i + (float)ExtraShifter;
 428              		.loc 1 408 3 is_stmt 1 discriminator 3 view .LVU127
 429              		.loc 1 408 27 is_stmt 0 discriminator 3 view .LVU128
 430 0014 07EE904A 		vmov	s15, r4	@ int
 431 0018 B8EEE77A 		vcvt.f32.s32	s14, s15
 432              		.loc 1 408 38 discriminator 3 view .LVU129
 433 001c 374A     		ldr	r2, .L36+4
 434 001e D2ED007A 		vldr.32	s15, [r2]	@ int
 435 0022 F8EE677A 		vcvt.f32.u32	s15, s15
 436              		.loc 1 408 36 discriminator 3 view .LVU130
 437 0026 37EE277A 		vadd.f32	s14, s14, s15
 438              		.loc 1 408 24 discriminator 3 view .LVU131
 439 002a 03EB8402 		add	r2, r3, r4, lsl #2
 440 002e 82ED007A 		vstr.32	s14, [r2]
ARM GAS  C:\Users\Teodor\AppData\Local\Temp\cczmnjKd.s 			page 16


 409:Drivers/BluetoothComm/BluetoothClassicComm.c **** 		SimFakeXY_MapDat.Y[i] = 0.0F + (float)ExtraShifter;
 441              		.loc 1 409 3 is_stmt 1 discriminator 3 view .LVU132
 442              		.loc 1 409 32 is_stmt 0 discriminator 3 view .LVU133
 443 0032 9FED337A 		vldr.32	s14, .L36+8
 444 0036 77EE877A 		vadd.f32	s15, s15, s14
 445              		.loc 1 409 25 discriminator 3 view .LVU134
 446 003a 04F59672 		add	r2, r4, #300
 447 003e 03EB8203 		add	r3, r3, r2, lsl #2
 448 0042 C3ED007A 		vstr.32	s15, [r3]
 405:Drivers/BluetoothComm/BluetoothClassicComm.c **** 	{
 449              		.loc 1 405 23 is_stmt 1 discriminator 3 view .LVU135
 405:Drivers/BluetoothComm/BluetoothClassicComm.c **** 	{
 450              		.loc 1 405 24 is_stmt 0 discriminator 3 view .LVU136
 451 0046 0134     		adds	r4, r4, #1
 452              	.LVL34:
 453              	.L29:
 405:Drivers/BluetoothComm/BluetoothClassicComm.c **** 	{
 454              		.loc 1 405 16 is_stmt 1 discriminator 1 view .LVU137
 405:Drivers/BluetoothComm/BluetoothClassicComm.c **** 	{
 455              		.loc 1 405 2 is_stmt 0 discriminator 1 view .LVU138
 456 0048 632C     		cmp	r4, #99
 457 004a DCDD     		ble	.L30
 458              	.LBE3:
 459              	.LBB4:
 410:Drivers/BluetoothComm/BluetoothClassicComm.c **** 	}
 411:Drivers/BluetoothComm/BluetoothClassicComm.c **** 	for(int i=0;  i<100; i++)
 460              		.loc 1 411 10 view .LVU139
 461 004c 0024     		movs	r4, #0
 462              	.LVL35:
 463              		.loc 1 411 10 view .LVU140
 464 004e 22E0     		b	.L31
 465              	.LVL36:
 466              	.L32:
 412:Drivers/BluetoothComm/BluetoothClassicComm.c **** 	{
 413:Drivers/BluetoothComm/BluetoothClassicComm.c **** 		SimFakeXY_MapDat.T[i+100]= HAL_GetTick();
 467              		.loc 1 413 3 is_stmt 1 discriminator 3 view .LVU141
 468              		.loc 1 413 30 is_stmt 0 discriminator 3 view .LVU142
 469 0050 FFF7FEFF 		bl	HAL_GetTick
 470              	.LVL37:
 471              		.loc 1 413 23 discriminator 3 view .LVU143
 472 0054 04F16402 		add	r2, r4, #100
 473              		.loc 1 413 28 discriminator 3 view .LVU144
 474 0058 274B     		ldr	r3, .L36
 475 005a 04F21451 		addw	r1, r4, #1300
 476 005e 23F81100 		strh	r0, [r3, r1, lsl #1]	@ movhi
 414:Drivers/BluetoothComm/BluetoothClassicComm.c **** 		SimFakeXY_MapDat.X[i+100]= 100.0F + (float)ExtraShifter;
 477              		.loc 1 414 3 is_stmt 1 discriminator 3 view .LVU145
 478              		.loc 1 414 39 is_stmt 0 discriminator 3 view .LVU146
 479 0062 2649     		ldr	r1, .L36+4
 480 0064 D1ED007A 		vldr.32	s15, [r1]	@ int
 481 0068 F8EE677A 		vcvt.f32.u32	s15, s15
 482              		.loc 1 414 37 discriminator 3 view .LVU147
 483 006c 9FED257A 		vldr.32	s14, .L36+12
 484 0070 37EE877A 		vadd.f32	s14, s15, s14
 485              		.loc 1 414 28 discriminator 3 view .LVU148
 486 0074 03EB8202 		add	r2, r3, r2, lsl #2
 487 0078 82ED007A 		vstr.32	s14, [r2]
ARM GAS  C:\Users\Teodor\AppData\Local\Temp\cczmnjKd.s 			page 17


 415:Drivers/BluetoothComm/BluetoothClassicComm.c **** 		SimFakeXY_MapDat.Y[i+100] = (float)i  + (float)ExtraShifter;
 488              		.loc 1 415 3 is_stmt 1 discriminator 3 view .LVU149
 489              		.loc 1 415 31 is_stmt 0 discriminator 3 view .LVU150
 490 007c 07EE104A 		vmov	s14, r4	@ int
 491 0080 B8EEC77A 		vcvt.f32.s32	s14, s14
 492              		.loc 1 415 41 discriminator 3 view .LVU151
 493 0084 77EE877A 		vadd.f32	s15, s15, s14
 494              		.loc 1 415 29 discriminator 3 view .LVU152
 495 0088 04F5C872 		add	r2, r4, #400
 496 008c 03EB8203 		add	r3, r3, r2, lsl #2
 497 0090 C3ED007A 		vstr.32	s15, [r3]
 411:Drivers/BluetoothComm/BluetoothClassicComm.c **** 	{
 498              		.loc 1 411 23 is_stmt 1 discriminator 3 view .LVU153
 411:Drivers/BluetoothComm/BluetoothClassicComm.c **** 	{
 499              		.loc 1 411 24 is_stmt 0 discriminator 3 view .LVU154
 500 0094 0134     		adds	r4, r4, #1
 501              	.LVL38:
 502              	.L31:
 411:Drivers/BluetoothComm/BluetoothClassicComm.c **** 	{
 503              		.loc 1 411 16 is_stmt 1 discriminator 1 view .LVU155
 411:Drivers/BluetoothComm/BluetoothClassicComm.c **** 	{
 504              		.loc 1 411 2 is_stmt 0 discriminator 1 view .LVU156
 505 0096 632C     		cmp	r4, #99
 506 0098 DADD     		ble	.L32
 507              	.LBE4:
 508              	.LBB5:
 416:Drivers/BluetoothComm/BluetoothClassicComm.c **** 	}
 417:Drivers/BluetoothComm/BluetoothClassicComm.c **** 	for(int i=0;  i<100; i++)
 509              		.loc 1 417 10 view .LVU157
 510 009a 0024     		movs	r4, #0
 511              	.LVL39:
 512              		.loc 1 417 10 view .LVU158
 513 009c 24E0     		b	.L33
 514              	.LVL40:
 515              	.L34:
 418:Drivers/BluetoothComm/BluetoothClassicComm.c **** 	{
 419:Drivers/BluetoothComm/BluetoothClassicComm.c **** 		SimFakeXY_MapDat.T[i+200]= HAL_GetTick();
 516              		.loc 1 419 3 is_stmt 1 discriminator 3 view .LVU159
 517              		.loc 1 419 30 is_stmt 0 discriminator 3 view .LVU160
 518 009e FFF7FEFF 		bl	HAL_GetTick
 519              	.LVL41:
 520              		.loc 1 419 23 discriminator 3 view .LVU161
 521 00a2 04F1C802 		add	r2, r4, #200
 522              		.loc 1 419 28 discriminator 3 view .LVU162
 523 00a6 144B     		ldr	r3, .L36
 524 00a8 04F5AF61 		add	r1, r4, #1400
 525 00ac 23F81100 		strh	r0, [r3, r1, lsl #1]	@ movhi
 420:Drivers/BluetoothComm/BluetoothClassicComm.c **** 		SimFakeXY_MapDat.X[i+200]= 100.0F - ((float)i*1.0F) + (float)ExtraShifter;
 526              		.loc 1 420 3 is_stmt 1 discriminator 3 view .LVU163
 527              		.loc 1 420 48 is_stmt 0 discriminator 3 view .LVU164
 528 00b0 07EE904A 		vmov	s15, r4	@ int
 529 00b4 B8EEE77A 		vcvt.f32.s32	s14, s15
 530              		.loc 1 420 37 discriminator 3 view .LVU165
 531 00b8 DFED126A 		vldr.32	s13, .L36+12
 532 00bc 36EEC77A 		vsub.f32	s14, s13, s14
 533              		.loc 1 420 57 discriminator 3 view .LVU166
 534 00c0 0E49     		ldr	r1, .L36+4
ARM GAS  C:\Users\Teodor\AppData\Local\Temp\cczmnjKd.s 			page 18


 535 00c2 D1ED007A 		vldr.32	s15, [r1]	@ int
 536 00c6 F8EE677A 		vcvt.f32.u32	s15, s15
 537              		.loc 1 420 55 discriminator 3 view .LVU167
 538 00ca 37EE277A 		vadd.f32	s14, s14, s15
 539              		.loc 1 420 28 discriminator 3 view .LVU168
 540 00ce 03EB8202 		add	r2, r3, r2, lsl #2
 541 00d2 82ED007A 		vstr.32	s14, [r2]
 421:Drivers/BluetoothComm/BluetoothClassicComm.c **** 		SimFakeXY_MapDat.Y[i+200] =100.0F     + (float)ExtraShifter;
 542              		.loc 1 421 3 is_stmt 1 discriminator 3 view .LVU169
 543              		.loc 1 421 41 is_stmt 0 discriminator 3 view .LVU170
 544 00d6 77EEA67A 		vadd.f32	s15, s15, s13
 545              		.loc 1 421 29 discriminator 3 view .LVU171
 546 00da 04F5FA72 		add	r2, r4, #500
 547 00de 03EB8203 		add	r3, r3, r2, lsl #2
 548 00e2 C3ED007A 		vstr.32	s15, [r3]
 417:Drivers/BluetoothComm/BluetoothClassicComm.c **** 	{
 549              		.loc 1 417 23 is_stmt 1 discriminator 3 view .LVU172
 417:Drivers/BluetoothComm/BluetoothClassicComm.c **** 	{
 550              		.loc 1 417 24 is_stmt 0 discriminator 3 view .LVU173
 551 00e6 0134     		adds	r4, r4, #1
 552              	.LVL42:
 553              	.L33:
 417:Drivers/BluetoothComm/BluetoothClassicComm.c **** 	{
 554              		.loc 1 417 16 is_stmt 1 discriminator 1 view .LVU174
 417:Drivers/BluetoothComm/BluetoothClassicComm.c **** 	{
 555              		.loc 1 417 2 is_stmt 0 discriminator 1 view .LVU175
 556 00e8 632C     		cmp	r4, #99
 557 00ea D8DD     		ble	.L34
 558              	.LBE5:
 422:Drivers/BluetoothComm/BluetoothClassicComm.c **** 	}
 423:Drivers/BluetoothComm/BluetoothClassicComm.c **** 
 424:Drivers/BluetoothComm/BluetoothClassicComm.c **** 	ExtraShifter = ExtraShifter + 5;
 559              		.loc 1 424 2 is_stmt 1 view .LVU176
 560              		.loc 1 424 30 is_stmt 0 view .LVU177
 561 00ec 034A     		ldr	r2, .L36+4
 562 00ee 1368     		ldr	r3, [r2]
 563 00f0 0533     		adds	r3, r3, #5
 564              		.loc 1 424 15 view .LVU178
 565 00f2 1360     		str	r3, [r2]
 425:Drivers/BluetoothComm/BluetoothClassicComm.c **** }
 566              		.loc 1 425 1 view .LVU179
 567 00f4 10BD     		pop	{r4, pc}
 568              	.LVL43:
 569              	.L37:
 570              		.loc 1 425 1 view .LVU180
 571 00f6 00BF     		.align	2
 572              	.L36:
 573 00f8 00000000 		.word	.LANCHOR1
 574 00fc 00000000 		.word	.LANCHOR2
 575 0100 00000000 		.word	0
 576 0104 0000C842 		.word	1120403456
 577              		.cfi_endproc
 578              	.LFE140:
 580              		.section	.text.TransmitLfBaseDataReport,"ax",%progbits
 581              		.align	1
 582              		.syntax unified
 583              		.thumb
ARM GAS  C:\Users\Teodor\AppData\Local\Temp\cczmnjKd.s 			page 19


 584              		.thumb_func
 586              	TransmitLfBaseDataReport:
 587              	.LFB138:
 320:Drivers/BluetoothComm/BluetoothClassicComm.c **** 	uint8_t DataBuffer[BLU_SINGLE_MESSAGE_SIZE] = {'B'};
 588              		.loc 1 320 1 is_stmt 1 view -0
 589              		.cfi_startproc
 590              		@ args = 0, pretend = 0, frame = 104
 591              		@ frame_needed = 0, uses_anonymous_args = 0
 592 0000 10B5     		push	{r4, lr}
 593              	.LCFI6:
 594              		.cfi_def_cfa_offset 8
 595              		.cfi_offset 4, -8
 596              		.cfi_offset 14, -4
 597 0002 9AB0     		sub	sp, sp, #104
 598              	.LCFI7:
 599              		.cfi_def_cfa_offset 112
 321:Drivers/BluetoothComm/BluetoothClassicComm.c **** 	static uint8_t _SyncID = 0;
 600              		.loc 1 321 2 view .LVU182
 321:Drivers/BluetoothComm/BluetoothClassicComm.c **** 	static uint8_t _SyncID = 0;
 601              		.loc 1 321 10 is_stmt 0 view .LVU183
 602 0004 4223     		movs	r3, #66
 603 0006 0193     		str	r3, [sp, #4]
 604 0008 6022     		movs	r2, #96
 605 000a 0021     		movs	r1, #0
 606 000c 02A8     		add	r0, sp, #8
 607 000e FFF7FEFF 		bl	memset
 608              	.LVL44:
 322:Drivers/BluetoothComm/BluetoothClassicComm.c **** 
 609              		.loc 1 322 2 is_stmt 1 view .LVU184
 324:Drivers/BluetoothComm/BluetoothClassicComm.c **** 
 610              		.loc 1 324 2 view .LVU185
 326:Drivers/BluetoothComm/BluetoothClassicComm.c **** 	NewestLfDataReport.ucTimeStamp = HAL_GetTick();
 611              		.loc 1 326 2 view .LVU186
 326:Drivers/BluetoothComm/BluetoothClassicComm.c **** 	NewestLfDataReport.ucTimeStamp = HAL_GetTick();
 612              		.loc 1 326 28 is_stmt 0 view .LVU187
 613 0012 1C4C     		ldr	r4, .L42
 614 0014 1C4B     		ldr	r3, .L42+4
 615 0016 1B78     		ldrb	r3, [r3]	@ zero_extendqisi2
 616 0018 2370     		strb	r3, [r4]
 327:Drivers/BluetoothComm/BluetoothClassicComm.c **** 
 617              		.loc 1 327 2 is_stmt 1 view .LVU188
 327:Drivers/BluetoothComm/BluetoothClassicComm.c **** 
 618              		.loc 1 327 35 is_stmt 0 view .LVU189
 619 001a FFF7FEFF 		bl	HAL_GetTick
 620              	.LVL45:
 327:Drivers/BluetoothComm/BluetoothClassicComm.c **** 
 621              		.loc 1 327 33 view .LVU190
 622 001e C4F80100 		str	r0, [r4, #1]	@ unaligned
 329:Drivers/BluetoothComm/BluetoothClassicComm.c **** 	DataBuffer[1] = NewestLfDataReport.SyncId;
 623              		.loc 1 329 2 is_stmt 1 view .LVU191
 329:Drivers/BluetoothComm/BluetoothClassicComm.c **** 	DataBuffer[1] = NewestLfDataReport.SyncId;
 624              		.loc 1 329 16 is_stmt 0 view .LVU192
 625 0022 0923     		movs	r3, #9
 626 0024 8DF80430 		strb	r3, [sp, #4]
 330:Drivers/BluetoothComm/BluetoothClassicComm.c **** 
 627              		.loc 1 330 2 is_stmt 1 view .LVU193
 330:Drivers/BluetoothComm/BluetoothClassicComm.c **** 
ARM GAS  C:\Users\Teodor\AppData\Local\Temp\cczmnjKd.s 			page 20


 628              		.loc 1 330 36 is_stmt 0 view .LVU194
 629 0028 2346     		mov	r3, r4
 630 002a 13F8012B 		ldrb	r2, [r3], #1	@ zero_extendqisi2
 330:Drivers/BluetoothComm/BluetoothClassicComm.c **** 
 631              		.loc 1 330 16 view .LVU195
 632 002e 8DF80520 		strb	r2, [sp, #5]
 332:Drivers/BluetoothComm/BluetoothClassicComm.c **** 
 633              		.loc 1 332 2 is_stmt 1 view .LVU196
 634 0032 0DF10602 		add	r2, sp, #6
 635 0036 3134     		adds	r4, r4, #49
 636              	.L39:
 637 0038 D3F800E0 		ldr	lr, [r3]	@ unaligned
 638 003c D3F804C0 		ldr	ip, [r3, #4]	@ unaligned
 639 0040 9868     		ldr	r0, [r3, #8]	@ unaligned
 640 0042 D968     		ldr	r1, [r3, #12]	@ unaligned
 641 0044 C2F800E0 		str	lr, [r2]	@ unaligned
 642 0048 C2F804C0 		str	ip, [r2, #4]	@ unaligned
 643 004c 9060     		str	r0, [r2, #8]	@ unaligned
 644 004e D160     		str	r1, [r2, #12]	@ unaligned
 645 0050 1033     		adds	r3, r3, #16
 646 0052 1032     		adds	r2, r2, #16
 647 0054 A342     		cmp	r3, r4
 648 0056 EFD1     		bne	.L39
 649 0058 1968     		ldr	r1, [r3]	@ unaligned
 650 005a 1160     		str	r1, [r2]	@ unaligned
 651 005c 9B88     		ldrh	r3, [r3, #4]	@ unaligned
 652 005e 9380     		strh	r3, [r2, #4]	@ unaligned
 334:Drivers/BluetoothComm/BluetoothClassicComm.c **** 	{
 653              		.loc 1 334 2 view .LVU197
 334:Drivers/BluetoothComm/BluetoothClassicComm.c **** 	{
 654              		.loc 1 334 5 is_stmt 0 view .LVU198
 655 0060 6422     		movs	r2, #100
 656 0062 01A9     		add	r1, sp, #4
 657 0064 0948     		ldr	r0, .L42+8
 658 0066 FFF7FEFF 		bl	RB_Transmit_Write
 659              	.LVL46:
 334:Drivers/BluetoothComm/BluetoothClassicComm.c **** 	{
 660              		.loc 1 334 4 view .LVU199
 661 006a 0346     		mov	r3, r0
 662 006c 10B1     		cbz	r0, .L40
 336:Drivers/BluetoothComm/BluetoothClassicComm.c **** 		retval = BLU_Error;
 663              		.loc 1 336 3 is_stmt 1 view .LVU200
 336:Drivers/BluetoothComm/BluetoothClassicComm.c **** 		retval = BLU_Error;
 664              		.loc 1 336 18 is_stmt 0 view .LVU201
 665 006e 0123     		movs	r3, #1
 666 0070 074A     		ldr	r2, .L42+12
 667 0072 1370     		strb	r3, [r2]
 337:Drivers/BluetoothComm/BluetoothClassicComm.c **** 	}
 668              		.loc 1 337 3 is_stmt 1 view .LVU202
 669              	.LVL47:
 670              	.L40:
 340:Drivers/BluetoothComm/BluetoothClassicComm.c **** 	return retval;
 671              		.loc 1 340 2 view .LVU203
 340:Drivers/BluetoothComm/BluetoothClassicComm.c **** 	return retval;
 672              		.loc 1 340 9 is_stmt 0 view .LVU204
 673 0074 0449     		ldr	r1, .L42+4
 674 0076 0A78     		ldrb	r2, [r1]	@ zero_extendqisi2
ARM GAS  C:\Users\Teodor\AppData\Local\Temp\cczmnjKd.s 			page 21


 675 0078 0132     		adds	r2, r2, #1
 676 007a 0A70     		strb	r2, [r1]
 341:Drivers/BluetoothComm/BluetoothClassicComm.c **** }
 677              		.loc 1 341 2 is_stmt 1 view .LVU205
 342:Drivers/BluetoothComm/BluetoothClassicComm.c **** 
 678              		.loc 1 342 1 is_stmt 0 view .LVU206
 679 007c 1846     		mov	r0, r3
 680 007e 1AB0     		add	sp, sp, #104
 681              	.LCFI8:
 682              		.cfi_def_cfa_offset 8
 683              		@ sp needed
 684 0080 10BD     		pop	{r4, pc}
 685              	.L43:
 686 0082 00BF     		.align	2
 687              	.L42:
 688 0084 00000000 		.word	.LANCHOR3
 689 0088 00000000 		.word	.LANCHOR4
 690 008c 00000000 		.word	.LANCHOR5
 691 0090 00000000 		.word	.LANCHOR6
 692              		.cfi_endproc
 693              	.LFE138:
 695              		.section	.text.Statistics_CreateAndTransmitCommunicationStatistics,"ax",%progbits
 696              		.align	1
 697              		.syntax unified
 698              		.thumb
 699              		.thumb_func
 701              	Statistics_CreateAndTransmitCommunicationStatistics:
 702              	.LFB139:
 346:Drivers/BluetoothComm/BluetoothClassicComm.c **** 	static uint8_t SyncIdStat = 0U;
 703              		.loc 1 346 1 is_stmt 1 view -0
 704              		.cfi_startproc
 705              		@ args = 0, pretend = 0, frame = 0
 706              		@ frame_needed = 0, uses_anonymous_args = 0
 707 0000 38B5     		push	{r3, r4, r5, lr}
 708              	.LCFI9:
 709              		.cfi_def_cfa_offset 16
 710              		.cfi_offset 3, -16
 711              		.cfi_offset 4, -12
 712              		.cfi_offset 5, -8
 713              		.cfi_offset 14, -4
 347:Drivers/BluetoothComm/BluetoothClassicComm.c **** 
 714              		.loc 1 347 2 view .LVU208
 349:Drivers/BluetoothComm/BluetoothClassicComm.c **** 
 715              		.loc 1 349 2 view .LVU209
 351:Drivers/BluetoothComm/BluetoothClassicComm.c **** 	uint16_t RingBufferRemaninzingSpace = 0U;
 716              		.loc 1 351 2 view .LVU210
 352:Drivers/BluetoothComm/BluetoothClassicComm.c **** 
 717              		.loc 1 352 2 view .LVU211
 718              	.LVL48:
 354:Drivers/BluetoothComm/BluetoothClassicComm.c **** 	{
 719              		.loc 1 354 2 view .LVU212
 720              	.LBB6:
 354:Drivers/BluetoothComm/BluetoothClassicComm.c **** 	{
 721              		.loc 1 354 6 view .LVU213
 354:Drivers/BluetoothComm/BluetoothClassicComm.c **** 	{
 722              		.loc 1 354 10 is_stmt 0 view .LVU214
 723 0002 0023     		movs	r3, #0
ARM GAS  C:\Users\Teodor\AppData\Local\Temp\cczmnjKd.s 			page 22


 354:Drivers/BluetoothComm/BluetoothClassicComm.c **** 	{
 724              		.loc 1 354 2 view .LVU215
 725 0004 03E0     		b	.L45
 726              	.LVL49:
 727              	.L46:
 356:Drivers/BluetoothComm/BluetoothClassicComm.c **** 	}
 728              		.loc 1 356 3 is_stmt 1 discriminator 3 view .LVU216
 356:Drivers/BluetoothComm/BluetoothClassicComm.c **** 	}
 729              		.loc 1 356 33 is_stmt 0 discriminator 3 view .LVU217
 730 0006 204A     		ldr	r2, .L49
 731 0008 0021     		movs	r1, #0
 732 000a D154     		strb	r1, [r2, r3]
 354:Drivers/BluetoothComm/BluetoothClassicComm.c **** 	{
 733              		.loc 1 354 43 is_stmt 1 discriminator 3 view .LVU218
 354:Drivers/BluetoothComm/BluetoothClassicComm.c **** 	{
 734              		.loc 1 354 44 is_stmt 0 discriminator 3 view .LVU219
 735 000c 0133     		adds	r3, r3, #1
 736              	.LVL50:
 737              	.L45:
 354:Drivers/BluetoothComm/BluetoothClassicComm.c **** 	{
 738              		.loc 1 354 16 is_stmt 1 discriminator 1 view .LVU220
 354:Drivers/BluetoothComm/BluetoothClassicComm.c **** 	{
 739              		.loc 1 354 2 is_stmt 0 discriminator 1 view .LVU221
 740 000e 632B     		cmp	r3, #99
 741 0010 F9DD     		ble	.L46
 742              	.LBE6:
 359:Drivers/BluetoothComm/BluetoothClassicComm.c **** 	{
 743              		.loc 1 359 2 is_stmt 1 view .LVU222
 359:Drivers/BluetoothComm/BluetoothClassicComm.c **** 	{
 744              		.loc 1 359 10 is_stmt 0 view .LVU223
 745 0012 1E4B     		ldr	r3, .L49+4
 746              	.LVL51:
 359:Drivers/BluetoothComm/BluetoothClassicComm.c **** 	{
 747              		.loc 1 359 10 view .LVU224
 748 0014 1B78     		ldrb	r3, [r3]	@ zero_extendqisi2
 359:Drivers/BluetoothComm/BluetoothClassicComm.c **** 	{
 749              		.loc 1 359 4 view .LVU225
 750 0016 33B1     		cbz	r3, .L47
 361:Drivers/BluetoothComm/BluetoothClassicComm.c **** 		MainRingBufferOverFlowCounter++;
 751              		.loc 1 361 3 is_stmt 1 view .LVU226
 361:Drivers/BluetoothComm/BluetoothClassicComm.c **** 		MainRingBufferOverFlowCounter++;
 752              		.loc 1 361 18 is_stmt 0 view .LVU227
 753 0018 1C4B     		ldr	r3, .L49+4
 754 001a 0022     		movs	r2, #0
 755 001c 1A70     		strb	r2, [r3]
 362:Drivers/BluetoothComm/BluetoothClassicComm.c **** 	}
 756              		.loc 1 362 3 is_stmt 1 view .LVU228
 362:Drivers/BluetoothComm/BluetoothClassicComm.c **** 	}
 757              		.loc 1 362 32 is_stmt 0 view .LVU229
 758 001e 1C4A     		ldr	r2, .L49+8
 759 0020 1388     		ldrh	r3, [r2]
 760 0022 0133     		adds	r3, r3, #1
 761 0024 1380     		strh	r3, [r2]	@ movhi
 762              	.L47:
 365:Drivers/BluetoothComm/BluetoothClassicComm.c **** 	RingBufferStatisticsHolder[1] = SyncIdStat; /*SyncId*/
 763              		.loc 1 365 2 is_stmt 1 view .LVU230
 365:Drivers/BluetoothComm/BluetoothClassicComm.c **** 	RingBufferStatisticsHolder[1] = SyncIdStat; /*SyncId*/
ARM GAS  C:\Users\Teodor\AppData\Local\Temp\cczmnjKd.s 			page 23


 764              		.loc 1 365 32 is_stmt 0 view .LVU231
 765 0026 184C     		ldr	r4, .L49
 766 0028 0823     		movs	r3, #8
 767 002a 2370     		strb	r3, [r4]
 366:Drivers/BluetoothComm/BluetoothClassicComm.c **** 
 768              		.loc 1 366 2 is_stmt 1 view .LVU232
 366:Drivers/BluetoothComm/BluetoothClassicComm.c **** 
 769              		.loc 1 366 32 is_stmt 0 view .LVU233
 770 002c 194D     		ldr	r5, .L49+12
 771 002e 2B78     		ldrb	r3, [r5]	@ zero_extendqisi2
 772 0030 6370     		strb	r3, [r4, #1]
 368:Drivers/BluetoothComm/BluetoothClassicComm.c **** 	RingBufferStatisticsHolder[2] = ((uint8_t *)&ucHelperTime)[0];
 773              		.loc 1 368 2 is_stmt 1 view .LVU234
 368:Drivers/BluetoothComm/BluetoothClassicComm.c **** 	RingBufferStatisticsHolder[2] = ((uint8_t *)&ucHelperTime)[0];
 774              		.loc 1 368 26 is_stmt 0 view .LVU235
 775 0032 FFF7FEFF 		bl	HAL_GetTick
 776              	.LVL52:
 369:Drivers/BluetoothComm/BluetoothClassicComm.c **** 	RingBufferStatisticsHolder[3] = ((uint8_t *)&ucHelperTime)[1];
 777              		.loc 1 369 2 is_stmt 1 view .LVU236
 369:Drivers/BluetoothComm/BluetoothClassicComm.c **** 	RingBufferStatisticsHolder[3] = ((uint8_t *)&ucHelperTime)[1];
 778              		.loc 1 369 32 is_stmt 0 view .LVU237
 779 0036 A070     		strb	r0, [r4, #2]
 370:Drivers/BluetoothComm/BluetoothClassicComm.c **** 	RingBufferStatisticsHolder[4] = ((uint8_t *)&ucHelperTime)[2];
 780              		.loc 1 370 2 is_stmt 1 view .LVU238
 370:Drivers/BluetoothComm/BluetoothClassicComm.c **** 	RingBufferStatisticsHolder[4] = ((uint8_t *)&ucHelperTime)[2];
 781              		.loc 1 370 32 is_stmt 0 view .LVU239
 782 0038 C0F30723 		ubfx	r3, r0, #8, #8
 783 003c E370     		strb	r3, [r4, #3]
 371:Drivers/BluetoothComm/BluetoothClassicComm.c **** 	RingBufferStatisticsHolder[5] = ((uint8_t *)&ucHelperTime)[3];
 784              		.loc 1 371 2 is_stmt 1 view .LVU240
 371:Drivers/BluetoothComm/BluetoothClassicComm.c **** 	RingBufferStatisticsHolder[5] = ((uint8_t *)&ucHelperTime)[3];
 785              		.loc 1 371 32 is_stmt 0 view .LVU241
 786 003e C0F30743 		ubfx	r3, r0, #16, #8
 787 0042 2371     		strb	r3, [r4, #4]
 372:Drivers/BluetoothComm/BluetoothClassicComm.c **** 
 788              		.loc 1 372 2 is_stmt 1 view .LVU242
 372:Drivers/BluetoothComm/BluetoothClassicComm.c **** 
 789              		.loc 1 372 32 is_stmt 0 view .LVU243
 790 0044 C0F30760 		ubfx	r0, r0, #24, #8
 791              	.LVL53:
 372:Drivers/BluetoothComm/BluetoothClassicComm.c **** 
 792              		.loc 1 372 32 view .LVU244
 793 0048 6071     		strb	r0, [r4, #5]
 374:Drivers/BluetoothComm/BluetoothClassicComm.c **** 
 794              		.loc 1 374 2 is_stmt 1 view .LVU245
 374:Drivers/BluetoothComm/BluetoothClassicComm.c **** 
 795              		.loc 1 374 122 is_stmt 0 view .LVU246
 796 004a 134A     		ldr	r2, .L49+16
 797 004c 5388     		ldrh	r3, [r2, #2]
 374:Drivers/BluetoothComm/BluetoothClassicComm.c **** 
 798              		.loc 1 374 89 view .LVU247
 799 004e 1288     		ldrh	r2, [r2]
 374:Drivers/BluetoothComm/BluetoothClassicComm.c **** 
 800              		.loc 1 374 61 view .LVU248
 801 0050 9B1A     		subs	r3, r3, r2
 802 0052 6433     		adds	r3, r3, #100
 803              	.LVL54:
ARM GAS  C:\Users\Teodor\AppData\Local\Temp\cczmnjKd.s 			page 24


 376:Drivers/BluetoothComm/BluetoothClassicComm.c **** 	RingBufferStatisticsHolder[7] = ((uint8_t *)&RingBufferRemaninzingSpace)[1];
 804              		.loc 1 376 2 is_stmt 1 view .LVU249
 376:Drivers/BluetoothComm/BluetoothClassicComm.c **** 	RingBufferStatisticsHolder[7] = ((uint8_t *)&RingBufferRemaninzingSpace)[1];
 805              		.loc 1 376 32 is_stmt 0 view .LVU250
 806 0054 A371     		strb	r3, [r4, #6]
 377:Drivers/BluetoothComm/BluetoothClassicComm.c **** 
 807              		.loc 1 377 2 is_stmt 1 view .LVU251
 377:Drivers/BluetoothComm/BluetoothClassicComm.c **** 
 808              		.loc 1 377 32 is_stmt 0 view .LVU252
 809 0056 C3F30723 		ubfx	r3, r3, #8, #8
 810              	.LVL55:
 377:Drivers/BluetoothComm/BluetoothClassicComm.c **** 
 811              		.loc 1 377 32 view .LVU253
 812 005a E371     		strb	r3, [r4, #7]
 379:Drivers/BluetoothComm/BluetoothClassicComm.c **** 	RingBufferStatisticsHolder[9] = ((uint8_t *)&MainRingBufferOverFlowCounter)[1];
 813              		.loc 1 379 2 is_stmt 1 view .LVU254
 379:Drivers/BluetoothComm/BluetoothClassicComm.c **** 	RingBufferStatisticsHolder[9] = ((uint8_t *)&MainRingBufferOverFlowCounter)[1];
 814              		.loc 1 379 77 is_stmt 0 view .LVU255
 815 005c 0C4B     		ldr	r3, .L49+8
 816 005e 1A78     		ldrb	r2, [r3]	@ zero_extendqisi2
 817              	.LVL56:
 379:Drivers/BluetoothComm/BluetoothClassicComm.c **** 	RingBufferStatisticsHolder[9] = ((uint8_t *)&MainRingBufferOverFlowCounter)[1];
 818              		.loc 1 379 32 view .LVU256
 819 0060 2272     		strb	r2, [r4, #8]
 380:Drivers/BluetoothComm/BluetoothClassicComm.c **** 
 820              		.loc 1 380 2 is_stmt 1 view .LVU257
 380:Drivers/BluetoothComm/BluetoothClassicComm.c **** 
 821              		.loc 1 380 32 is_stmt 0 view .LVU258
 822 0062 5B78     		ldrb	r3, [r3, #1]	@ zero_extendqisi2
 823 0064 6372     		strb	r3, [r4, #9]
 382:Drivers/BluetoothComm/BluetoothClassicComm.c **** 	RingBufferStatisticsHolder[11] =  ((uint8_t *)&TransmisstedMessagesCounter)[1];
 824              		.loc 1 382 2 is_stmt 1 view .LVU259
 382:Drivers/BluetoothComm/BluetoothClassicComm.c **** 	RingBufferStatisticsHolder[11] =  ((uint8_t *)&TransmisstedMessagesCounter)[1];
 825              		.loc 1 382 77 is_stmt 0 view .LVU260
 826 0066 0D4B     		ldr	r3, .L49+20
 827 0068 1A78     		ldrb	r2, [r3]	@ zero_extendqisi2
 382:Drivers/BluetoothComm/BluetoothClassicComm.c **** 	RingBufferStatisticsHolder[11] =  ((uint8_t *)&TransmisstedMessagesCounter)[1];
 828              		.loc 1 382 33 view .LVU261
 829 006a A272     		strb	r2, [r4, #10]
 383:Drivers/BluetoothComm/BluetoothClassicComm.c **** 
 830              		.loc 1 383 2 is_stmt 1 view .LVU262
 383:Drivers/BluetoothComm/BluetoothClassicComm.c **** 
 831              		.loc 1 383 33 is_stmt 0 view .LVU263
 832 006c 5B78     		ldrb	r3, [r3, #1]	@ zero_extendqisi2
 833 006e E372     		strb	r3, [r4, #11]
 385:Drivers/BluetoothComm/BluetoothClassicComm.c **** 	RingBufferStatisticsHolder[13] =  ((uint8_t *)&RetransmissionCounter)[1];
 834              		.loc 1 385 2 is_stmt 1 view .LVU264
 385:Drivers/BluetoothComm/BluetoothClassicComm.c **** 	RingBufferStatisticsHolder[13] =  ((uint8_t *)&RetransmissionCounter)[1];
 835              		.loc 1 385 34 is_stmt 0 view .LVU265
 836 0070 0023     		movs	r3, #0
 837 0072 2373     		strb	r3, [r4, #12]
 386:Drivers/BluetoothComm/BluetoothClassicComm.c **** 
 838              		.loc 1 386 2 is_stmt 1 view .LVU266
 386:Drivers/BluetoothComm/BluetoothClassicComm.c **** 
 839              		.loc 1 386 33 is_stmt 0 view .LVU267
 840 0074 6373     		strb	r3, [r4, #13]
 388:Drivers/BluetoothComm/BluetoothClassicComm.c **** 
ARM GAS  C:\Users\Teodor\AppData\Local\Temp\cczmnjKd.s 			page 25


 841              		.loc 1 388 2 is_stmt 1 view .LVU268
 842 0076 6422     		movs	r2, #100
 843 0078 2146     		mov	r1, r4
 844 007a 0948     		ldr	r0, .L49+24
 845 007c FFF7FEFF 		bl	HAL_UART_Transmit_DMA
 846              	.LVL57:
 390:Drivers/BluetoothComm/BluetoothClassicComm.c **** }
 847              		.loc 1 390 2 view .LVU269
 390:Drivers/BluetoothComm/BluetoothClassicComm.c **** }
 848              		.loc 1 390 12 is_stmt 0 view .LVU270
 849 0080 2B78     		ldrb	r3, [r5]	@ zero_extendqisi2
 850 0082 0133     		adds	r3, r3, #1
 851 0084 2B70     		strb	r3, [r5]
 391:Drivers/BluetoothComm/BluetoothClassicComm.c **** 
 852              		.loc 1 391 1 view .LVU271
 853 0086 38BD     		pop	{r3, r4, r5, pc}
 854              	.L50:
 855              		.align	2
 856              	.L49:
 857 0088 00000000 		.word	.LANCHOR7
 858 008c 00000000 		.word	.LANCHOR6
 859 0090 00000000 		.word	.LANCHOR8
 860 0094 00000000 		.word	.LANCHOR9
 861 0098 00000000 		.word	.LANCHOR5
 862 009c 00000000 		.word	.LANCHOR10
 863 00a0 00000000 		.word	huart1
 864              		.cfi_endproc
 865              	.LFE139:
 867              		.section	.text.TransmitDataHandler,"ax",%progbits
 868              		.align	1
 869              		.syntax unified
 870              		.thumb
 871              		.thumb_func
 873              	TransmitDataHandler:
 874              	.LFB144:
 426:Drivers/BluetoothComm/BluetoothClassicComm.c **** 
 427:Drivers/BluetoothComm/BluetoothClassicComm.c **** void Sim_FakeBaseDataReportTask(void)
 428:Drivers/BluetoothComm/BluetoothClassicComm.c **** {
 429:Drivers/BluetoothComm/BluetoothClassicComm.c **** 	static uint16_t ProbeIterator = 0u;
 430:Drivers/BluetoothComm/BluetoothClassicComm.c **** 	static uint8_t SyncIdIter = 1;
 431:Drivers/BluetoothComm/BluetoothClassicComm.c **** 	static float WaveHelper = 0.0F;
 432:Drivers/BluetoothComm/BluetoothClassicComm.c **** 
 433:Drivers/BluetoothComm/BluetoothClassicComm.c **** 	for(int i =0; i<1; i++)
 434:Drivers/BluetoothComm/BluetoothClassicComm.c **** 	{
 435:Drivers/BluetoothComm/BluetoothClassicComm.c **** 		if(ProbeIterator == SIMULATOR_PROBES_COUNT)
 436:Drivers/BluetoothComm/BluetoothClassicComm.c **** 		{
 437:Drivers/BluetoothComm/BluetoothClassicComm.c **** 			Sim_Create_XY_FakeMap();
 438:Drivers/BluetoothComm/BluetoothClassicComm.c **** 			ProbeIterator = 1U;
 439:Drivers/BluetoothComm/BluetoothClassicComm.c **** 		}
 440:Drivers/BluetoothComm/BluetoothClassicComm.c **** 		NewestLfDataReport.ucTimeStamp = HAL_GetTick();
 441:Drivers/BluetoothComm/BluetoothClassicComm.c **** 		NewestLfDataReport.CurrMapData.PosX = SimFakeXY_MapDat.X[ProbeIterator];
 442:Drivers/BluetoothComm/BluetoothClassicComm.c **** 		NewestLfDataReport.CurrMapData.PosY = SimFakeXY_MapDat.Y[ProbeIterator];
 443:Drivers/BluetoothComm/BluetoothClassicComm.c **** 		NewestLfDataReport.CurrMapData.TravelledDistance = SyncIdIter;
 444:Drivers/BluetoothComm/BluetoothClassicComm.c **** 		NewestLfDataReport.CurrMapData.PosO = M_PI * sin(2 * M_PI * WaveHelper);
 445:Drivers/BluetoothComm/BluetoothClassicComm.c **** 		NewestLfDataReport.CurrMapData.WhLftSp = (2 * sin( 2 * M_PI * WaveHelper)) + (0.05 * sin( 2* M_PI
 446:Drivers/BluetoothComm/BluetoothClassicComm.c **** 		NewestLfDataReport.CurrMapData.WhRhtSp = (2 * cos( 2 * M_PI * WaveHelper)) + (0.05 * sin( 2* M_PI
 447:Drivers/BluetoothComm/BluetoothClassicComm.c **** 		NewestLfDataReport.CurrMapData.YawRate = (2 * sin( 2 * M_PI * WaveHelper)) + (0.3 * sin( 2* M_PI 
ARM GAS  C:\Users\Teodor\AppData\Local\Temp\cczmnjKd.s 			page 26


 448:Drivers/BluetoothComm/BluetoothClassicComm.c **** 		NewestLfDataReport.CurrSensorData.SensorData[0] = 40;
 449:Drivers/BluetoothComm/BluetoothClassicComm.c **** 		NewestLfDataReport.CurrSensorData.SensorData[1] = 40;
 450:Drivers/BluetoothComm/BluetoothClassicComm.c **** 		NewestLfDataReport.CurrSensorData.SensorData[2] = 40;
 451:Drivers/BluetoothComm/BluetoothClassicComm.c **** 		NewestLfDataReport.CurrSensorData.SensorData[3] = 63;
 452:Drivers/BluetoothComm/BluetoothClassicComm.c **** 		NewestLfDataReport.CurrSensorData.SensorData[4] = 64;
 453:Drivers/BluetoothComm/BluetoothClassicComm.c **** 		NewestLfDataReport.CurrSensorData.SensorData[5] = (uint8_t)(65 + SyncIdIter);
 454:Drivers/BluetoothComm/BluetoothClassicComm.c **** 		NewestLfDataReport.CurrSensorData.SensorData[6] = (uint8_t)(66 + SyncIdIter);
 455:Drivers/BluetoothComm/BluetoothClassicComm.c **** 		NewestLfDataReport.CurrSensorData.SensorData[7] = 40;
 456:Drivers/BluetoothComm/BluetoothClassicComm.c **** 		NewestLfDataReport.CurrSensorData.SensorData[8] = 40;
 457:Drivers/BluetoothComm/BluetoothClassicComm.c **** 		NewestLfDataReport.CurrSensorData.SensorData[9] = 40;
 458:Drivers/BluetoothComm/BluetoothClassicComm.c **** 		NewestLfDataReport.CurrSensorData.SensorData[10] = 40;
 459:Drivers/BluetoothComm/BluetoothClassicComm.c **** 		NewestLfDataReport.CurrSensorData.SensorData[11] = 40;
 460:Drivers/BluetoothComm/BluetoothClassicComm.c **** 		NewestLfDataReport.CurrSensorData.LastLeftLinePosConfidence = SyncIdIter;
 461:Drivers/BluetoothComm/BluetoothClassicComm.c **** 		NewestLfDataReport.CurrSensorData.LastRightLinePosConfidence = SyncIdIter+5;
 462:Drivers/BluetoothComm/BluetoothClassicComm.c **** 		NewestLfDataReport.CurrSensorData.PosError = 1 * sin( 2 * M_PI * WaveHelper);
 463:Drivers/BluetoothComm/BluetoothClassicComm.c **** 		NewestLfDataReport.LinePidRegData.LinePidRegVal = (2 * sin( 2 * M_PI * WaveHelper)) + (0.2 * sin(
 464:Drivers/BluetoothComm/BluetoothClassicComm.c **** 
 465:Drivers/BluetoothComm/BluetoothClassicComm.c **** 		WaveHelper = WaveHelper + 0.01;
 466:Drivers/BluetoothComm/BluetoothClassicComm.c **** 		ProbeIterator++;
 467:Drivers/BluetoothComm/BluetoothClassicComm.c **** 		SyncIdIter++;
 468:Drivers/BluetoothComm/BluetoothClassicComm.c **** 	
 469:Drivers/BluetoothComm/BluetoothClassicComm.c **** 	}
 470:Drivers/BluetoothComm/BluetoothClassicComm.c **** 
 471:Drivers/BluetoothComm/BluetoothClassicComm.c **** }
 472:Drivers/BluetoothComm/BluetoothClassicComm.c **** 
 473:Drivers/BluetoothComm/BluetoothClassicComm.c **** 
 474:Drivers/BluetoothComm/BluetoothClassicComm.c **** void BaseDataReporterTask(void)
 475:Drivers/BluetoothComm/BluetoothClassicComm.c **** {
 476:Drivers/BluetoothComm/BluetoothClassicComm.c **** 	static uint32_t PreviousReportTransmitTime = 0;
 477:Drivers/BluetoothComm/BluetoothClassicComm.c **** 
 478:Drivers/BluetoothComm/BluetoothClassicComm.c **** 	if( (HAL_GetTick() - PreviousReportTransmitTime >= BLU_DATA_REPORTING_TIME)
 479:Drivers/BluetoothComm/BluetoothClassicComm.c **** 			&& (TrueDataLogging == LoggingState))
 480:Drivers/BluetoothComm/BluetoothClassicComm.c **** 	{
 481:Drivers/BluetoothComm/BluetoothClassicComm.c **** 		PreviousReportTransmitTime = HAL_GetTick();
 482:Drivers/BluetoothComm/BluetoothClassicComm.c **** 		TransmitLfBaseDataReport(); 
 483:Drivers/BluetoothComm/BluetoothClassicComm.c **** 		/*Base data report struct is updated asynchronicly 
 484:Drivers/BluetoothComm/BluetoothClassicComm.c **** 		* by another modules
 485:Drivers/BluetoothComm/BluetoothClassicComm.c **** 		* Check desprition of functions BLE_Report..
 486:Drivers/BluetoothComm/BluetoothClassicComm.c **** 		*/
 487:Drivers/BluetoothComm/BluetoothClassicComm.c **** 	}
 488:Drivers/BluetoothComm/BluetoothClassicComm.c **** 	else if(  (HAL_GetTick() - PreviousReportTransmitTime >= BLU_DATA_REPORTING_TIME )
 489:Drivers/BluetoothComm/BluetoothClassicComm.c **** 						&& (SimulatorDataLogging == LoggingState) )
 490:Drivers/BluetoothComm/BluetoothClassicComm.c **** 	{
 491:Drivers/BluetoothComm/BluetoothClassicComm.c **** 		PreviousReportTransmitTime = HAL_GetTick();
 492:Drivers/BluetoothComm/BluetoothClassicComm.c **** 		Sim_FakeBaseDataReportTask();
 493:Drivers/BluetoothComm/BluetoothClassicComm.c **** 		TransmitLfBaseDataReport();
 494:Drivers/BluetoothComm/BluetoothClassicComm.c **** 	}
 495:Drivers/BluetoothComm/BluetoothClassicComm.c **** 	else//Suspended == LoggingState
 496:Drivers/BluetoothComm/BluetoothClassicComm.c **** 	{
 497:Drivers/BluetoothComm/BluetoothClassicComm.c **** 		/*Nothing to do*/
 498:Drivers/BluetoothComm/BluetoothClassicComm.c **** 	}
 499:Drivers/BluetoothComm/BluetoothClassicComm.c **** }
 500:Drivers/BluetoothComm/BluetoothClassicComm.c **** 
 501:Drivers/BluetoothComm/BluetoothClassicComm.c **** static void ReceiveDataHandler(void)
 502:Drivers/BluetoothComm/BluetoothClassicComm.c **** {
 503:Drivers/BluetoothComm/BluetoothClassicComm.c **** 	static uint32_t LastReadRingBufferTime = 0U;
 504:Drivers/BluetoothComm/BluetoothClassicComm.c **** 	static bool NvmDataUpdatedFlag = false;
ARM GAS  C:\Users\Teodor\AppData\Local\Temp\cczmnjKd.s 			page 27


 505:Drivers/BluetoothComm/BluetoothClassicComm.c **** 
 506:Drivers/BluetoothComm/BluetoothClassicComm.c **** 	uint8_t *MessageToRead_p = NULL;
 507:Drivers/BluetoothComm/BluetoothClassicComm.c **** 	uint8_t MessageToReadSize= 0U;
 508:Drivers/BluetoothComm/BluetoothClassicComm.c **** 
 509:Drivers/BluetoothComm/BluetoothClassicComm.c **** 	{
 510:Drivers/BluetoothComm/BluetoothClassicComm.c **** 
 511:Drivers/BluetoothComm/BluetoothClassicComm.c **** 		if(RB_Receive_Read(&BleMainReceiveRingBuffer, &MessageToReadSize,&MessageToRead_p) == RB_OK)
 512:Drivers/BluetoothComm/BluetoothClassicComm.c **** 		{
 513:Drivers/BluetoothComm/BluetoothClassicComm.c **** 
 514:Drivers/BluetoothComm/BluetoothClassicComm.c **** 			uint8_t *ReceivedMessageBuff = MessageToRead_p;
 515:Drivers/BluetoothComm/BluetoothClassicComm.c **** 			BLU_MessageID_t ReceivedMessageId = ReceivedMessageBuff[0];
 516:Drivers/BluetoothComm/BluetoothClassicComm.c **** 
 517:Drivers/BluetoothComm/BluetoothClassicComm.c **** 			LastReadRingBufferTime = HAL_GetTick();
 518:Drivers/BluetoothComm/BluetoothClassicComm.c **** 
 519:Drivers/BluetoothComm/BluetoothClassicComm.c **** 			switch(ReceivedMessageId)
 520:Drivers/BluetoothComm/BluetoothClassicComm.c **** 			{
 521:Drivers/BluetoothComm/BluetoothClassicComm.c **** 				case BLU_NvM_ErrWeigthSensorData:
 522:Drivers/BluetoothComm/BluetoothClassicComm.c **** 				{
 523:Drivers/BluetoothComm/BluetoothClassicComm.c **** 					NvmDataUpdatedFlag= true;
 524:Drivers/BluetoothComm/BluetoothClassicComm.c **** 					break;
 525:Drivers/BluetoothComm/BluetoothClassicComm.c **** 				}
 526:Drivers/BluetoothComm/BluetoothClassicComm.c **** 
 527:Drivers/BluetoothComm/BluetoothClassicComm.c **** 				case BLU_NvM_ErrWeigthSensorDataReq:
 528:Drivers/BluetoothComm/BluetoothClassicComm.c **** 				{
 529:Drivers/BluetoothComm/BluetoothClassicComm.c **** 					break;
 530:Drivers/BluetoothComm/BluetoothClassicComm.c **** 				}
 531:Drivers/BluetoothComm/BluetoothClassicComm.c **** 
 532:Drivers/BluetoothComm/BluetoothClassicComm.c **** 				case BLU_NvM_LinePidRegDataReq:
 533:Drivers/BluetoothComm/BluetoothClassicComm.c **** 				{
 534:Drivers/BluetoothComm/BluetoothClassicComm.c **** 					break;
 535:Drivers/BluetoothComm/BluetoothClassicComm.c **** 				}
 536:Drivers/BluetoothComm/BluetoothClassicComm.c **** 
 537:Drivers/BluetoothComm/BluetoothClassicComm.c **** 				case BLU_NvM_LinePidRegData:
 538:Drivers/BluetoothComm/BluetoothClassicComm.c **** 				{
 539:Drivers/BluetoothComm/BluetoothClassicComm.c **** 					NvmDataUpdatedFlag= true;
 540:Drivers/BluetoothComm/BluetoothClassicComm.c **** 					break;
 541:Drivers/BluetoothComm/BluetoothClassicComm.c **** 				}
 542:Drivers/BluetoothComm/BluetoothClassicComm.c **** 
 543:Drivers/BluetoothComm/BluetoothClassicComm.c **** 				case BLU_NvM_VehCfgReq:
 544:Drivers/BluetoothComm/BluetoothClassicComm.c **** 				{
 545:Drivers/BluetoothComm/BluetoothClassicComm.c **** 	//				BLU_DbgMsgTransmit("VehCfgReq");
 546:Drivers/BluetoothComm/BluetoothClassicComm.c **** 					break;
 547:Drivers/BluetoothComm/BluetoothClassicComm.c **** 				}
 548:Drivers/BluetoothComm/BluetoothClassicComm.c **** 
 549:Drivers/BluetoothComm/BluetoothClassicComm.c **** 				case BLU_NvM_VehCfgData:
 550:Drivers/BluetoothComm/BluetoothClassicComm.c **** 				{
 551:Drivers/BluetoothComm/BluetoothClassicComm.c **** 					NvmDataUpdatedFlag= true;
 552:Drivers/BluetoothComm/BluetoothClassicComm.c **** 					// BLU_DbgMsgTransmit("Received BaseMotSpd: %f, LedSt %d, EndLMark %d",
 553:Drivers/BluetoothComm/BluetoothClassicComm.c **** 					// 		BaseMotSpd,LedState,TryDetEndLine );
 554:Drivers/BluetoothComm/BluetoothClassicComm.c **** 
 555:Drivers/BluetoothComm/BluetoothClassicComm.c **** 					break;
 556:Drivers/BluetoothComm/BluetoothClassicComm.c **** 				}
 557:Drivers/BluetoothComm/BluetoothClassicComm.c **** 
 558:Drivers/BluetoothComm/BluetoothClassicComm.c **** 				case BLU_RobotStart:
 559:Drivers/BluetoothComm/BluetoothClassicComm.c **** 				{
 560:Drivers/BluetoothComm/BluetoothClassicComm.c **** 					InternalRobotState = Driving;
 561:Drivers/BluetoothComm/BluetoothClassicComm.c **** 					LoggingState = TrueDataLogging;
ARM GAS  C:\Users\Teodor\AppData\Local\Temp\cczmnjKd.s 			page 28


 562:Drivers/BluetoothComm/BluetoothClassicComm.c **** 					BLU_DbgMsgTransmit("LineFollower start!");
 563:Drivers/BluetoothComm/BluetoothClassicComm.c **** 					break;
 564:Drivers/BluetoothComm/BluetoothClassicComm.c **** 				}
 565:Drivers/BluetoothComm/BluetoothClassicComm.c **** 				case BLU_RobotStop:
 566:Drivers/BluetoothComm/BluetoothClassicComm.c **** 				{
 567:Drivers/BluetoothComm/BluetoothClassicComm.c **** 					InternalRobotState = Standstill;
 568:Drivers/BluetoothComm/BluetoothClassicComm.c **** 					LoggingState = Suspended;
 569:Drivers/BluetoothComm/BluetoothClassicComm.c **** 					BLU_DbgMsgTransmit("LineFollower stop");
 570:Drivers/BluetoothComm/BluetoothClassicComm.c **** 					break;
 571:Drivers/BluetoothComm/BluetoothClassicComm.c **** 				}
 572:Drivers/BluetoothComm/BluetoothClassicComm.c **** 
 573:Drivers/BluetoothComm/BluetoothClassicComm.c **** 				case BLU_SimulatorStart:
 574:Drivers/BluetoothComm/BluetoothClassicComm.c **** 				{
 575:Drivers/BluetoothComm/BluetoothClassicComm.c **** 					LoggingState = SimulatorDataLogging;
 576:Drivers/BluetoothComm/BluetoothClassicComm.c **** 					BLU_DbgMsgTransmit("Simulator data start");
 577:Drivers/BluetoothComm/BluetoothClassicComm.c **** 					break;
 578:Drivers/BluetoothComm/BluetoothClassicComm.c **** 				}
 579:Drivers/BluetoothComm/BluetoothClassicComm.c **** 
 580:Drivers/BluetoothComm/BluetoothClassicComm.c **** 				case BLU_TrueBaseLoggingStart:
 581:Drivers/BluetoothComm/BluetoothClassicComm.c **** 				{
 582:Drivers/BluetoothComm/BluetoothClassicComm.c **** 					LoggingState = TrueDataLogging;
 583:Drivers/BluetoothComm/BluetoothClassicComm.c **** 					BLU_DbgMsgTransmit("True data logger start");
 584:Drivers/BluetoothComm/BluetoothClassicComm.c **** 					break;
 585:Drivers/BluetoothComm/BluetoothClassicComm.c **** 				}
 586:Drivers/BluetoothComm/BluetoothClassicComm.c **** 
 587:Drivers/BluetoothComm/BluetoothClassicComm.c **** 				case BLU_SimuAndTrueDataLoggingStop:
 588:Drivers/BluetoothComm/BluetoothClassicComm.c **** 				{
 589:Drivers/BluetoothComm/BluetoothClassicComm.c **** 					LoggingState = Suspended;
 590:Drivers/BluetoothComm/BluetoothClassicComm.c **** 					BLU_DbgMsgTransmit("Logger stop");
 591:Drivers/BluetoothComm/BluetoothClassicComm.c **** 					break;
 592:Drivers/BluetoothComm/BluetoothClassicComm.c **** 				}
 593:Drivers/BluetoothComm/BluetoothClassicComm.c **** 
 594:Drivers/BluetoothComm/BluetoothClassicComm.c **** 				case BLU_NvM_MotorsFactorsReq:
 595:Drivers/BluetoothComm/BluetoothClassicComm.c **** 				{
 596:Drivers/BluetoothComm/BluetoothClassicComm.c **** 					break;
 597:Drivers/BluetoothComm/BluetoothClassicComm.c **** 				}
 598:Drivers/BluetoothComm/BluetoothClassicComm.c **** 
 599:Drivers/BluetoothComm/BluetoothClassicComm.c **** 				case BLU_NvM_MotorsFactorsData:
 600:Drivers/BluetoothComm/BluetoothClassicComm.c **** 				{
 601:Drivers/BluetoothComm/BluetoothClassicComm.c **** 					NvmDataUpdatedFlag= true;
 602:Drivers/BluetoothComm/BluetoothClassicComm.c **** 					break;
 603:Drivers/BluetoothComm/BluetoothClassicComm.c **** 
 604:Drivers/BluetoothComm/BluetoothClassicComm.c **** 				}
 605:Drivers/BluetoothComm/BluetoothClassicComm.c **** 
 606:Drivers/BluetoothComm/BluetoothClassicComm.c **** 				case BLU_NvM_EncoderModCfgReq:
 607:Drivers/BluetoothComm/BluetoothClassicComm.c **** 				{
 608:Drivers/BluetoothComm/BluetoothClassicComm.c **** 					break;
 609:Drivers/BluetoothComm/BluetoothClassicComm.c **** 				}
 610:Drivers/BluetoothComm/BluetoothClassicComm.c **** 				case BLU_NvM_EncoderModCfgData :
 611:Drivers/BluetoothComm/BluetoothClassicComm.c **** 				{
 612:Drivers/BluetoothComm/BluetoothClassicComm.c **** 					NvmDataUpdatedFlag= true;
 613:Drivers/BluetoothComm/BluetoothClassicComm.c **** 					break;
 614:Drivers/BluetoothComm/BluetoothClassicComm.c **** 				}
 615:Drivers/BluetoothComm/BluetoothClassicComm.c **** 
 616:Drivers/BluetoothComm/BluetoothClassicComm.c **** 				case	BLU_NvM_ManualCntrlCommand:/* Virutal analog controller frame */
 617:Drivers/BluetoothComm/BluetoothClassicComm.c **** 				{
 618:Drivers/BluetoothComm/BluetoothClassicComm.c **** 					break;
ARM GAS  C:\Users\Teodor\AppData\Local\Temp\cczmnjKd.s 			page 29


 619:Drivers/BluetoothComm/BluetoothClassicComm.c **** 				}
 620:Drivers/BluetoothComm/BluetoothClassicComm.c **** 
 621:Drivers/BluetoothComm/BluetoothClassicComm.c **** 				case BLU_NvM_SpdProfileReq:
 622:Drivers/BluetoothComm/BluetoothClassicComm.c **** 				{
 623:Drivers/BluetoothComm/BluetoothClassicComm.c **** 					break;
 624:Drivers/BluetoothComm/BluetoothClassicComm.c **** 				}
 625:Drivers/BluetoothComm/BluetoothClassicComm.c **** 
 626:Drivers/BluetoothComm/BluetoothClassicComm.c **** 				case BLU_NvM_SpdProfileData:
 627:Drivers/BluetoothComm/BluetoothClassicComm.c **** 				{
 628:Drivers/BluetoothComm/BluetoothClassicComm.c **** 					NvmDataUpdatedFlag= true;
 629:Drivers/BluetoothComm/BluetoothClassicComm.c **** 					break;
 630:Drivers/BluetoothComm/BluetoothClassicComm.c **** 				}
 631:Drivers/BluetoothComm/BluetoothClassicComm.c **** 
 632:Drivers/BluetoothComm/BluetoothClassicComm.c **** 				case BLU_SetNewRobotName:
 633:Drivers/BluetoothComm/BluetoothClassicComm.c **** 				{
 634:Drivers/BluetoothComm/BluetoothClassicComm.c **** 					break;
 635:Drivers/BluetoothComm/BluetoothClassicComm.c **** 				}
 636:Drivers/BluetoothComm/BluetoothClassicComm.c **** 
 637:Drivers/BluetoothComm/BluetoothClassicComm.c **** 				default:
 638:Drivers/BluetoothComm/BluetoothClassicComm.c **** 				{
 639:Drivers/BluetoothComm/BluetoothClassicComm.c **** 					if(ReceivedMessageId != 0)
 640:Drivers/BluetoothComm/BluetoothClassicComm.c **** 					{
 641:Drivers/BluetoothComm/BluetoothClassicComm.c **** 						BLU_DbgMsgTransmit("BLU RecHandlrErr-why defult?? |FrId:%d",ReceivedMessageId);
 642:Drivers/BluetoothComm/BluetoothClassicComm.c **** 					}
 643:Drivers/BluetoothComm/BluetoothClassicComm.c **** 					break;
 644:Drivers/BluetoothComm/BluetoothClassicComm.c **** 				}
 645:Drivers/BluetoothComm/BluetoothClassicComm.c **** 
 646:Drivers/BluetoothComm/BluetoothClassicComm.c **** 			}
 647:Drivers/BluetoothComm/BluetoothClassicComm.c **** 
 648:Drivers/BluetoothComm/BluetoothClassicComm.c **** 			ReceivedMessageId = BLU_None;
 649:Drivers/BluetoothComm/BluetoothClassicComm.c **** 		}
 650:Drivers/BluetoothComm/BluetoothClassicComm.c **** 
 651:Drivers/BluetoothComm/BluetoothClassicComm.c **** 		if( (NvmDataUpdatedFlag == true) && (HAL_GetTick() - LastReadRingBufferTime > 50) )
 652:Drivers/BluetoothComm/BluetoothClassicComm.c **** 		{
 653:Drivers/BluetoothComm/BluetoothClassicComm.c **** 			NvmDataUpdatedFlag = false;
 654:Drivers/BluetoothComm/BluetoothClassicComm.c **** 
 655:Drivers/BluetoothComm/BluetoothClassicComm.c **** 			for(int i=0; i<BLU_NVM_UPDATE_MAX_CALL_BACKS_COUNT; i++)
 656:Drivers/BluetoothComm/BluetoothClassicComm.c **** 			{
 657:Drivers/BluetoothComm/BluetoothClassicComm.c **** 				if(NvmUpdateCallBacks[i] != 0)
 658:Drivers/BluetoothComm/BluetoothClassicComm.c **** 				{
 659:Drivers/BluetoothComm/BluetoothClassicComm.c **** 					NvmUpdateCallBacks[i]();
 660:Drivers/BluetoothComm/BluetoothClassicComm.c **** 				}
 661:Drivers/BluetoothComm/BluetoothClassicComm.c **** 			}
 662:Drivers/BluetoothComm/BluetoothClassicComm.c **** 
 663:Drivers/BluetoothComm/BluetoothClassicComm.c **** 			BLU_DbgMsgTransmit("Nvm Data updated and commited");
 664:Drivers/BluetoothComm/BluetoothClassicComm.c **** 		}
 665:Drivers/BluetoothComm/BluetoothClassicComm.c **** 
 666:Drivers/BluetoothComm/BluetoothClassicComm.c **** 	}
 667:Drivers/BluetoothComm/BluetoothClassicComm.c **** 
 668:Drivers/BluetoothComm/BluetoothClassicComm.c **** 
 669:Drivers/BluetoothComm/BluetoothClassicComm.c **** }
 670:Drivers/BluetoothComm/BluetoothClassicComm.c **** 
 671:Drivers/BluetoothComm/BluetoothClassicComm.c **** 
 672:Drivers/BluetoothComm/BluetoothClassicComm.c **** 
 673:Drivers/BluetoothComm/BluetoothClassicComm.c **** static void TransmitDataHandler(void)
 674:Drivers/BluetoothComm/BluetoothClassicComm.c **** {
 875              		.loc 1 674 1 is_stmt 1 view -0
ARM GAS  C:\Users\Teodor\AppData\Local\Temp\cczmnjKd.s 			page 30


 876              		.cfi_startproc
 877              		@ args = 0, pretend = 0, frame = 8
 878              		@ frame_needed = 0, uses_anonymous_args = 0
 675:Drivers/BluetoothComm/BluetoothClassicComm.c **** 	static uint32_t BLU_StatisticTimer = 0;
 879              		.loc 1 675 2 view .LVU273
 676:Drivers/BluetoothComm/BluetoothClassicComm.c **** 
 677:Drivers/BluetoothComm/BluetoothClassicComm.c **** 	if( HAL_UART_STATE_READY == huart1.gState)
 880              		.loc 1 677 2 view .LVU274
 881              		.loc 1 677 36 is_stmt 0 view .LVU275
 882 0000 1D4B     		ldr	r3, .L61
 883 0002 93F83D30 		ldrb	r3, [r3, #61]	@ zero_extendqisi2
 884 0006 DBB2     		uxtb	r3, r3
 885              		.loc 1 677 4 view .LVU276
 886 0008 202B     		cmp	r3, #32
 887 000a 06D0     		beq	.L60
 678:Drivers/BluetoothComm/BluetoothClassicComm.c **** 	{
 679:Drivers/BluetoothComm/BluetoothClassicComm.c **** 		if(HAL_GetTick() - BLU_StatisticTimer >= BLU_STATISTICS_PERIOD)
 680:Drivers/BluetoothComm/BluetoothClassicComm.c **** 		{
 681:Drivers/BluetoothComm/BluetoothClassicComm.c **** 				BLU_StatisticTimer = HAL_GetTick();
 682:Drivers/BluetoothComm/BluetoothClassicComm.c **** 				// /*Transmit the statistics with higher prio than normal messages*/
 683:Drivers/BluetoothComm/BluetoothClassicComm.c **** 				TransmisstedMessagesCounter++;
 684:Drivers/BluetoothComm/BluetoothClassicComm.c **** 				Statistics_CreateAndTransmitCommunicationStatistics();
 685:Drivers/BluetoothComm/BluetoothClassicComm.c **** 		}
 686:Drivers/BluetoothComm/BluetoothClassicComm.c **** 		else
 687:Drivers/BluetoothComm/BluetoothClassicComm.c **** 		{
 688:Drivers/BluetoothComm/BluetoothClassicComm.c **** 				uint8_t *MessageToTransmit_p = NULL;
 689:Drivers/BluetoothComm/BluetoothClassicComm.c **** 				uint8_t MessageToSize_p = 0U;
 690:Drivers/BluetoothComm/BluetoothClassicComm.c **** 				if(RB_Transmit_Read(&BluMainTransmitRingBuffer, &MessageToSize_p, &MessageToTransmit_p) == RB_O
 691:Drivers/BluetoothComm/BluetoothClassicComm.c **** 				{
 692:Drivers/BluetoothComm/BluetoothClassicComm.c **** 					TransmisstedMessagesCounter++;
 693:Drivers/BluetoothComm/BluetoothClassicComm.c **** 					HAL_UART_Transmit_DMA(&huart1, MessageToTransmit_p, BLU_SINGLE_MESSAGE_SIZE);
 694:Drivers/BluetoothComm/BluetoothClassicComm.c **** 				}
 695:Drivers/BluetoothComm/BluetoothClassicComm.c **** 		}
 696:Drivers/BluetoothComm/BluetoothClassicComm.c **** 	}
 697:Drivers/BluetoothComm/BluetoothClassicComm.c **** 	else
 698:Drivers/BluetoothComm/BluetoothClassicComm.c **** 	{
 699:Drivers/BluetoothComm/BluetoothClassicComm.c **** 		UartBusyCounter++;
 888              		.loc 1 699 3 is_stmt 1 view .LVU277
 889              		.loc 1 699 18 is_stmt 0 view .LVU278
 890 000c 1B4A     		ldr	r2, .L61+4
 891 000e 1388     		ldrh	r3, [r2]
 892 0010 9BB2     		uxth	r3, r3
 893 0012 0133     		adds	r3, r3, #1
 894 0014 9BB2     		uxth	r3, r3
 895 0016 1380     		strh	r3, [r2]	@ movhi
 896 0018 7047     		bx	lr
 897              	.L60:
 674:Drivers/BluetoothComm/BluetoothClassicComm.c **** 	static uint32_t BLU_StatisticTimer = 0;
 898              		.loc 1 674 1 view .LVU279
 899 001a 00B5     		push	{lr}
 900              	.LCFI10:
 901              		.cfi_def_cfa_offset 4
 902              		.cfi_offset 14, -4
 903 001c 83B0     		sub	sp, sp, #12
 904              	.LCFI11:
 905              		.cfi_def_cfa_offset 16
 679:Drivers/BluetoothComm/BluetoothClassicComm.c **** 		{
ARM GAS  C:\Users\Teodor\AppData\Local\Temp\cczmnjKd.s 			page 31


 906              		.loc 1 679 3 is_stmt 1 view .LVU280
 679:Drivers/BluetoothComm/BluetoothClassicComm.c **** 		{
 907              		.loc 1 679 6 is_stmt 0 view .LVU281
 908 001e FFF7FEFF 		bl	HAL_GetTick
 909              	.LVL58:
 679:Drivers/BluetoothComm/BluetoothClassicComm.c **** 		{
 910              		.loc 1 679 20 view .LVU282
 911 0022 174B     		ldr	r3, .L61+8
 912 0024 1B68     		ldr	r3, [r3]
 913 0026 C01A     		subs	r0, r0, r3
 679:Drivers/BluetoothComm/BluetoothClassicComm.c **** 		{
 914              		.loc 1 679 5 view .LVU283
 915 0028 41F28733 		movw	r3, #4999
 916 002c 9842     		cmp	r0, r3
 917 002e 0CD9     		bls	.L53
 681:Drivers/BluetoothComm/BluetoothClassicComm.c **** 				// /*Transmit the statistics with higher prio than normal messages*/
 918              		.loc 1 681 5 is_stmt 1 view .LVU284
 681:Drivers/BluetoothComm/BluetoothClassicComm.c **** 				// /*Transmit the statistics with higher prio than normal messages*/
 919              		.loc 1 681 26 is_stmt 0 view .LVU285
 920 0030 FFF7FEFF 		bl	HAL_GetTick
 921              	.LVL59:
 681:Drivers/BluetoothComm/BluetoothClassicComm.c **** 				// /*Transmit the statistics with higher prio than normal messages*/
 922              		.loc 1 681 24 view .LVU286
 923 0034 124B     		ldr	r3, .L61+8
 924 0036 1860     		str	r0, [r3]
 683:Drivers/BluetoothComm/BluetoothClassicComm.c **** 				Statistics_CreateAndTransmitCommunicationStatistics();
 925              		.loc 1 683 5 is_stmt 1 view .LVU287
 683:Drivers/BluetoothComm/BluetoothClassicComm.c **** 				Statistics_CreateAndTransmitCommunicationStatistics();
 926              		.loc 1 683 32 is_stmt 0 view .LVU288
 927 0038 124A     		ldr	r2, .L61+12
 928 003a 1388     		ldrh	r3, [r2]
 929 003c 0133     		adds	r3, r3, #1
 930 003e 1380     		strh	r3, [r2]	@ movhi
 684:Drivers/BluetoothComm/BluetoothClassicComm.c **** 		}
 931              		.loc 1 684 5 is_stmt 1 view .LVU289
 932 0040 FFF7FEFF 		bl	Statistics_CreateAndTransmitCommunicationStatistics
 933              	.LVL60:
 934              	.L51:
 700:Drivers/BluetoothComm/BluetoothClassicComm.c **** 	}
 701:Drivers/BluetoothComm/BluetoothClassicComm.c **** }
 935              		.loc 1 701 1 is_stmt 0 view .LVU290
 936 0044 03B0     		add	sp, sp, #12
 937              	.LCFI12:
 938              		.cfi_remember_state
 939              		.cfi_def_cfa_offset 4
 940              		@ sp needed
 941 0046 5DF804FB 		ldr	pc, [sp], #4
 942              	.L53:
 943              	.LCFI13:
 944              		.cfi_restore_state
 945              	.LBB7:
 688:Drivers/BluetoothComm/BluetoothClassicComm.c **** 				uint8_t MessageToSize_p = 0U;
 946              		.loc 1 688 5 is_stmt 1 view .LVU291
 688:Drivers/BluetoothComm/BluetoothClassicComm.c **** 				uint8_t MessageToSize_p = 0U;
 947              		.loc 1 688 14 is_stmt 0 view .LVU292
 948 004a 0023     		movs	r3, #0
 949 004c 0193     		str	r3, [sp, #4]
ARM GAS  C:\Users\Teodor\AppData\Local\Temp\cczmnjKd.s 			page 32


 689:Drivers/BluetoothComm/BluetoothClassicComm.c **** 				if(RB_Transmit_Read(&BluMainTransmitRingBuffer, &MessageToSize_p, &MessageToTransmit_p) == RB_O
 950              		.loc 1 689 5 is_stmt 1 view .LVU293
 689:Drivers/BluetoothComm/BluetoothClassicComm.c **** 				if(RB_Transmit_Read(&BluMainTransmitRingBuffer, &MessageToSize_p, &MessageToTransmit_p) == RB_O
 951              		.loc 1 689 13 is_stmt 0 view .LVU294
 952 004e 8DF80330 		strb	r3, [sp, #3]
 690:Drivers/BluetoothComm/BluetoothClassicComm.c **** 				{
 953              		.loc 1 690 5 is_stmt 1 view .LVU295
 690:Drivers/BluetoothComm/BluetoothClassicComm.c **** 				{
 954              		.loc 1 690 8 is_stmt 0 view .LVU296
 955 0052 01AA     		add	r2, sp, #4
 956 0054 0DF10301 		add	r1, sp, #3
 957 0058 0B48     		ldr	r0, .L61+16
 958 005a FFF7FEFF 		bl	RB_Transmit_Read
 959              	.LVL61:
 690:Drivers/BluetoothComm/BluetoothClassicComm.c **** 				{
 960              		.loc 1 690 7 view .LVU297
 961 005e 0028     		cmp	r0, #0
 962 0060 F0D1     		bne	.L51
 692:Drivers/BluetoothComm/BluetoothClassicComm.c **** 					HAL_UART_Transmit_DMA(&huart1, MessageToTransmit_p, BLU_SINGLE_MESSAGE_SIZE);
 963              		.loc 1 692 6 is_stmt 1 view .LVU298
 692:Drivers/BluetoothComm/BluetoothClassicComm.c **** 					HAL_UART_Transmit_DMA(&huart1, MessageToTransmit_p, BLU_SINGLE_MESSAGE_SIZE);
 964              		.loc 1 692 33 is_stmt 0 view .LVU299
 965 0062 084A     		ldr	r2, .L61+12
 966 0064 1388     		ldrh	r3, [r2]
 967 0066 0133     		adds	r3, r3, #1
 968 0068 1380     		strh	r3, [r2]	@ movhi
 693:Drivers/BluetoothComm/BluetoothClassicComm.c **** 				}
 969              		.loc 1 693 6 is_stmt 1 view .LVU300
 970 006a 6422     		movs	r2, #100
 971 006c 0199     		ldr	r1, [sp, #4]
 972 006e 0248     		ldr	r0, .L61
 973 0070 FFF7FEFF 		bl	HAL_UART_Transmit_DMA
 974              	.LVL62:
 975 0074 E6E7     		b	.L51
 976              	.L62:
 977 0076 00BF     		.align	2
 978              	.L61:
 979 0078 00000000 		.word	huart1
 980 007c 00000000 		.word	.LANCHOR12
 981 0080 00000000 		.word	.LANCHOR11
 982 0084 00000000 		.word	.LANCHOR10
 983 0088 00000000 		.word	.LANCHOR5
 984              	.LBE7:
 985              		.cfi_endproc
 986              	.LFE144:
 988              		.section	.text.HAL_UARTEx_RxEventCallback,"ax",%progbits
 989              		.align	1
 990              		.global	HAL_UARTEx_RxEventCallback
 991              		.syntax unified
 992              		.thumb
 993              		.thumb_func
 995              	HAL_UARTEx_RxEventCallback:
 996              	.LVL63:
 997              	.LFB133:
 148:Drivers/BluetoothComm/BluetoothClassicComm.c **** 	static uint8_t *MessageReceiveBufferAddress;
 998              		.loc 1 148 1 view -0
 999              		.cfi_startproc
ARM GAS  C:\Users\Teodor\AppData\Local\Temp\cczmnjKd.s 			page 33


 1000              		@ args = 0, pretend = 0, frame = 0
 1001              		@ frame_needed = 0, uses_anonymous_args = 0
 149:Drivers/BluetoothComm/BluetoothClassicComm.c **** 
 1002              		.loc 1 149 2 view .LVU302
 151:Drivers/BluetoothComm/BluetoothClassicComm.c ****  	{
 1003              		.loc 1 151 3 view .LVU303
 151:Drivers/BluetoothComm/BluetoothClassicComm.c ****  	{
 1004              		.loc 1 151 11 is_stmt 0 view .LVU304
 1005 0000 0268     		ldr	r2, [r0]
 151:Drivers/BluetoothComm/BluetoothClassicComm.c ****  	{
 1006              		.loc 1 151 5 view .LVU305
 1007 0002 184B     		ldr	r3, .L74
 1008 0004 9A42     		cmp	r2, r3
 1009 0006 00D0     		beq	.L72
 1010 0008 7047     		bx	lr
 1011              	.L72:
 148:Drivers/BluetoothComm/BluetoothClassicComm.c **** 	static uint8_t *MessageReceiveBufferAddress;
 1012              		.loc 1 148 1 view .LVU306
 1013 000a 10B5     		push	{r4, lr}
 1014              	.LCFI14:
 1015              		.cfi_def_cfa_offset 8
 1016              		.cfi_offset 4, -8
 1017              		.cfi_offset 14, -4
 153:Drivers/BluetoothComm/BluetoothClassicComm.c **** 		{
 1018              		.loc 1 153 3 is_stmt 1 view .LVU307
 153:Drivers/BluetoothComm/BluetoothClassicComm.c **** 		{
 1019              		.loc 1 153 5 is_stmt 0 view .LVU308
 1020 000c 6429     		cmp	r1, #100
 1021 000e 02D0     		beq	.L65
 153:Drivers/BluetoothComm/BluetoothClassicComm.c **** 		{
 1022              		.loc 1 153 54 discriminator 1 view .LVU309
 1023 0010 154B     		ldr	r3, .L74+4
 1024 0012 1B78     		ldrb	r3, [r3]	@ zero_extendqisi2
 153:Drivers/BluetoothComm/BluetoothClassicComm.c **** 		{
 1025              		.loc 1 153 45 discriminator 1 view .LVU310
 1026 0014 6BB1     		cbz	r3, .L66
 1027              	.L65:
 155:Drivers/BluetoothComm/BluetoothClassicComm.c **** 			RB_Receive_GetNextMessageAddress(&BleMainReceiveRingBuffer,&MessageReceiveBufferAddress);
 1028              		.loc 1 155 4 is_stmt 1 view .LVU311
 155:Drivers/BluetoothComm/BluetoothClassicComm.c **** 			RB_Receive_GetNextMessageAddress(&BleMainReceiveRingBuffer,&MessageReceiveBufferAddress);
 1029              		.loc 1 155 34 is_stmt 0 view .LVU312
 1030 0016 144B     		ldr	r3, .L74+4
 1031 0018 0022     		movs	r2, #0
 1032 001a 1A70     		strb	r2, [r3]
 156:Drivers/BluetoothComm/BluetoothClassicComm.c **** 			HAL_UARTEx_ReceiveToIdle_DMA(&huart1, MessageReceiveBufferAddress, BLU_SINGLE_REC_MESSAGE_SIZE);
 1033              		.loc 1 156 4 is_stmt 1 view .LVU313
 1034 001c 134C     		ldr	r4, .L74+8
 1035 001e 2146     		mov	r1, r4
 1036              	.LVL64:
 156:Drivers/BluetoothComm/BluetoothClassicComm.c **** 			HAL_UARTEx_ReceiveToIdle_DMA(&huart1, MessageReceiveBufferAddress, BLU_SINGLE_REC_MESSAGE_SIZE);
 1037              		.loc 1 156 4 is_stmt 0 view .LVU314
 1038 0020 1348     		ldr	r0, .L74+12
 1039              	.LVL65:
 156:Drivers/BluetoothComm/BluetoothClassicComm.c **** 			HAL_UARTEx_ReceiveToIdle_DMA(&huart1, MessageReceiveBufferAddress, BLU_SINGLE_REC_MESSAGE_SIZE);
 1040              		.loc 1 156 4 view .LVU315
 1041 0022 FFF7FEFF 		bl	RB_Receive_GetNextMessageAddress
 1042              	.LVL66:
ARM GAS  C:\Users\Teodor\AppData\Local\Temp\cczmnjKd.s 			page 34


 157:Drivers/BluetoothComm/BluetoothClassicComm.c **** 		}
 1043              		.loc 1 157 4 is_stmt 1 view .LVU316
 1044 0026 6422     		movs	r2, #100
 1045 0028 2168     		ldr	r1, [r4]
 1046 002a 1248     		ldr	r0, .L74+16
 1047 002c FFF7FEFF 		bl	HAL_UARTEx_ReceiveToIdle_DMA
 1048              	.LVL67:
 1049              	.L63:
 171:Drivers/BluetoothComm/BluetoothClassicComm.c **** 
 1050              		.loc 1 171 1 is_stmt 0 view .LVU317
 1051 0030 10BD     		pop	{r4, pc}
 1052              	.LVL68:
 1053              	.L66:
 159:Drivers/BluetoothComm/BluetoothClassicComm.c **** 		{
 1054              		.loc 1 159 8 is_stmt 1 view .LVU318
 159:Drivers/BluetoothComm/BluetoothClassicComm.c **** 		{
 1055              		.loc 1 159 10 is_stmt 0 view .LVU319
 1056 0032 3229     		cmp	r1, #50
 1057 0034 0AD0     		beq	.L73
 164:Drivers/BluetoothComm/BluetoothClassicComm.c **** 			HAL_UARTEx_ReceiveToIdle_DMA(&huart1, MessageReceiveBufferAddress, BLU_SINGLE_REC_MESSAGE_SIZE);
 1058              		.loc 1 164 4 is_stmt 1 view .LVU320
 1059 0036 0D4C     		ldr	r4, .L74+8
 1060 0038 2146     		mov	r1, r4
 1061              	.LVL69:
 164:Drivers/BluetoothComm/BluetoothClassicComm.c **** 			HAL_UARTEx_ReceiveToIdle_DMA(&huart1, MessageReceiveBufferAddress, BLU_SINGLE_REC_MESSAGE_SIZE);
 1062              		.loc 1 164 4 is_stmt 0 view .LVU321
 1063 003a 0D48     		ldr	r0, .L74+12
 1064              	.LVL70:
 164:Drivers/BluetoothComm/BluetoothClassicComm.c **** 			HAL_UARTEx_ReceiveToIdle_DMA(&huart1, MessageReceiveBufferAddress, BLU_SINGLE_REC_MESSAGE_SIZE);
 1065              		.loc 1 164 4 view .LVU322
 1066 003c FFF7FEFF 		bl	RB_Receive_GetNextMessageAddress
 1067              	.LVL71:
 165:Drivers/BluetoothComm/BluetoothClassicComm.c **** 		}
 1068              		.loc 1 165 4 is_stmt 1 view .LVU323
 1069 0040 6422     		movs	r2, #100
 1070 0042 2168     		ldr	r1, [r4]
 1071 0044 0B48     		ldr	r0, .L74+16
 1072 0046 FFF7FEFF 		bl	HAL_UARTEx_ReceiveToIdle_DMA
 1073              	.LVL72:
 171:Drivers/BluetoothComm/BluetoothClassicComm.c **** 
 1074              		.loc 1 171 1 is_stmt 0 view .LVU324
 1075 004a F1E7     		b	.L63
 1076              	.LVL73:
 1077              	.L73:
 161:Drivers/BluetoothComm/BluetoothClassicComm.c **** 			HAL_UARTEx_ReceiveToIdle_DMA(&huart1, &MessageReceiveBufferAddress[BLU_SINGLE_REC_MESSAGE_SIZE/2
 1078              		.loc 1 161 4 is_stmt 1 view .LVU325
 161:Drivers/BluetoothComm/BluetoothClassicComm.c **** 			HAL_UARTEx_ReceiveToIdle_DMA(&huart1, &MessageReceiveBufferAddress[BLU_SINGLE_REC_MESSAGE_SIZE/2
 1079              		.loc 1 161 33 is_stmt 0 view .LVU326
 1080 004c 064B     		ldr	r3, .L74+4
 1081 004e 0122     		movs	r2, #1
 1082 0050 1A70     		strb	r2, [r3]
 162:Drivers/BluetoothComm/BluetoothClassicComm.c **** 		}else{
 1083              		.loc 1 162 4 is_stmt 1 view .LVU327
 1084 0052 064B     		ldr	r3, .L74+8
 1085 0054 1968     		ldr	r1, [r3]
 1086              	.LVL74:
 162:Drivers/BluetoothComm/BluetoothClassicComm.c **** 		}else{
ARM GAS  C:\Users\Teodor\AppData\Local\Temp\cczmnjKd.s 			page 35


 1087              		.loc 1 162 4 is_stmt 0 view .LVU328
 1088 0056 3222     		movs	r2, #50
 1089 0058 1144     		add	r1, r1, r2
 1090 005a 0648     		ldr	r0, .L74+16
 1091              	.LVL75:
 162:Drivers/BluetoothComm/BluetoothClassicComm.c **** 		}else{
 1092              		.loc 1 162 4 view .LVU329
 1093 005c FFF7FEFF 		bl	HAL_UARTEx_ReceiveToIdle_DMA
 1094              	.LVL76:
 1095 0060 E6E7     		b	.L63
 1096              	.L75:
 1097 0062 00BF     		.align	2
 1098              	.L74:
 1099 0064 00100140 		.word	1073811456
 1100 0068 00000000 		.word	.LANCHOR13
 1101 006c 00000000 		.word	.LANCHOR14
 1102 0070 00000000 		.word	.LANCHOR15
 1103 0074 00000000 		.word	huart1
 1104              		.cfi_endproc
 1105              	.LFE133:
 1107              		.global	__aeabi_f2d
 1108              		.global	__aeabi_dmul
 1109              		.global	__aeabi_d2f
 1110              		.global	__aeabi_dadd
 1111              		.section	.text.Sim_FakeBaseDataReportTask,"ax",%progbits
 1112              		.align	1
 1113              		.global	Sim_FakeBaseDataReportTask
 1114              		.syntax unified
 1115              		.thumb
 1116              		.thumb_func
 1118              	Sim_FakeBaseDataReportTask:
 1119              	.LFB141:
 428:Drivers/BluetoothComm/BluetoothClassicComm.c **** 	static uint16_t ProbeIterator = 0u;
 1120              		.loc 1 428 1 is_stmt 1 view -0
 1121              		.cfi_startproc
 1122              		@ args = 0, pretend = 0, frame = 24
 1123              		@ frame_needed = 0, uses_anonymous_args = 0
 1124 0000 2DE9F04F 		push	{r4, r5, r6, r7, r8, r9, r10, fp, lr}
 1125              	.LCFI15:
 1126              		.cfi_def_cfa_offset 36
 1127              		.cfi_offset 4, -36
 1128              		.cfi_offset 5, -32
 1129              		.cfi_offset 6, -28
 1130              		.cfi_offset 7, -24
 1131              		.cfi_offset 8, -20
 1132              		.cfi_offset 9, -16
 1133              		.cfi_offset 10, -12
 1134              		.cfi_offset 11, -8
 1135              		.cfi_offset 14, -4
 1136 0004 2DED028B 		vpush.64	{d8}
 1137              	.LCFI16:
 1138              		.cfi_def_cfa_offset 44
 1139              		.cfi_offset 80, -44
 1140              		.cfi_offset 81, -40
 1141 0008 87B0     		sub	sp, sp, #28
 1142              	.LCFI17:
 1143              		.cfi_def_cfa_offset 72
ARM GAS  C:\Users\Teodor\AppData\Local\Temp\cczmnjKd.s 			page 36


 429:Drivers/BluetoothComm/BluetoothClassicComm.c **** 	static uint8_t SyncIdIter = 1;
 1144              		.loc 1 429 2 view .LVU331
 430:Drivers/BluetoothComm/BluetoothClassicComm.c **** 	static float WaveHelper = 0.0F;
 1145              		.loc 1 430 2 view .LVU332
 431:Drivers/BluetoothComm/BluetoothClassicComm.c **** 
 1146              		.loc 1 431 2 view .LVU333
 433:Drivers/BluetoothComm/BluetoothClassicComm.c **** 	{
 1147              		.loc 1 433 2 view .LVU334
 1148              	.LBB8:
 433:Drivers/BluetoothComm/BluetoothClassicComm.c **** 	{
 1149              		.loc 1 433 6 view .LVU335
 1150              	.LVL77:
 433:Drivers/BluetoothComm/BluetoothClassicComm.c **** 	{
 1151              		.loc 1 433 10 is_stmt 0 view .LVU336
 1152 000a 4FF0000B 		mov	fp, #0
 1153              	.LVL78:
 1154              	.L77:
 433:Drivers/BluetoothComm/BluetoothClassicComm.c **** 	{
 1155              		.loc 1 433 16 is_stmt 1 discriminator 1 view .LVU337
 433:Drivers/BluetoothComm/BluetoothClassicComm.c **** 	{
 1156              		.loc 1 433 2 is_stmt 0 discriminator 1 view .LVU338
 1157 000e BBF1000F 		cmp	fp, #0
 1158 0012 04DD     		ble	.L79
 1159              	.LBE8:
 471:Drivers/BluetoothComm/BluetoothClassicComm.c **** 
 1160              		.loc 1 471 1 view .LVU339
 1161 0014 07B0     		add	sp, sp, #28
 1162              	.LCFI18:
 1163              		.cfi_remember_state
 1164              		.cfi_def_cfa_offset 44
 1165              		@ sp needed
 1166 0016 BDEC028B 		vldm	sp!, {d8}
 1167              	.LCFI19:
 1168              		.cfi_restore 80
 1169              		.cfi_restore 81
 1170              		.cfi_def_cfa_offset 36
 1171 001a BDE8F08F 		pop	{r4, r5, r6, r7, r8, r9, r10, fp, pc}
 1172              	.LVL79:
 1173              	.L79:
 1174              	.LCFI20:
 1175              		.cfi_restore_state
 1176              	.LBB9:
 435:Drivers/BluetoothComm/BluetoothClassicComm.c **** 		{
 1177              		.loc 1 435 3 is_stmt 1 view .LVU340
 435:Drivers/BluetoothComm/BluetoothClassicComm.c **** 		{
 1178              		.loc 1 435 20 is_stmt 0 view .LVU341
 1179 001e 9C4B     		ldr	r3, .L82+80
 1180 0020 1B88     		ldrh	r3, [r3]
 435:Drivers/BluetoothComm/BluetoothClassicComm.c **** 		{
 1181              		.loc 1 435 5 view .LVU342
 1182 0022 B3F5967F 		cmp	r3, #300
 1183 0026 00F00281 		beq	.L81
 1184              	.L78:
 440:Drivers/BluetoothComm/BluetoothClassicComm.c **** 		NewestLfDataReport.CurrMapData.PosX = SimFakeXY_MapDat.X[ProbeIterator];
 1185              		.loc 1 440 3 is_stmt 1 discriminator 2 view .LVU343
 440:Drivers/BluetoothComm/BluetoothClassicComm.c **** 		NewestLfDataReport.CurrMapData.PosX = SimFakeXY_MapDat.X[ProbeIterator];
 1186              		.loc 1 440 36 is_stmt 0 discriminator 2 view .LVU344
ARM GAS  C:\Users\Teodor\AppData\Local\Temp\cczmnjKd.s 			page 37


 1187 002a FFF7FEFF 		bl	HAL_GetTick
 1188              	.LVL80:
 440:Drivers/BluetoothComm/BluetoothClassicComm.c **** 		NewestLfDataReport.CurrMapData.PosX = SimFakeXY_MapDat.X[ProbeIterator];
 1189              		.loc 1 440 34 discriminator 2 view .LVU345
 1190 002e 994C     		ldr	r4, .L82+84
 1191 0030 C4F80100 		str	r0, [r4, #1]	@ unaligned
 441:Drivers/BluetoothComm/BluetoothClassicComm.c **** 		NewestLfDataReport.CurrMapData.PosY = SimFakeXY_MapDat.Y[ProbeIterator];
 1192              		.loc 1 441 3 is_stmt 1 discriminator 2 view .LVU346
 441:Drivers/BluetoothComm/BluetoothClassicComm.c **** 		NewestLfDataReport.CurrMapData.PosY = SimFakeXY_MapDat.Y[ProbeIterator];
 1193              		.loc 1 441 59 is_stmt 0 discriminator 2 view .LVU347
 1194 0034 DFF85882 		ldr	r8, .L82+80
 1195 0038 B8F80060 		ldrh	r6, [r8]
 1196 003c 964B     		ldr	r3, .L82+88
 1197 003e 03EB8602 		add	r2, r3, r6, lsl #2
 441:Drivers/BluetoothComm/BluetoothClassicComm.c **** 		NewestLfDataReport.CurrMapData.PosY = SimFakeXY_MapDat.Y[ProbeIterator];
 1198              		.loc 1 441 39 discriminator 2 view .LVU348
 1199 0042 1268     		ldr	r2, [r2]	@ float
 1200 0044 C4F81120 		str	r2, [r4, #17]	@ unaligned
 442:Drivers/BluetoothComm/BluetoothClassicComm.c **** 		NewestLfDataReport.CurrMapData.TravelledDistance = SyncIdIter;
 1201              		.loc 1 442 3 is_stmt 1 discriminator 2 view .LVU349
 442:Drivers/BluetoothComm/BluetoothClassicComm.c **** 		NewestLfDataReport.CurrMapData.TravelledDistance = SyncIdIter;
 1202              		.loc 1 442 59 is_stmt 0 discriminator 2 view .LVU350
 1203 0048 06F59672 		add	r2, r6, #300
 1204 004c 03EB8203 		add	r3, r3, r2, lsl #2
 442:Drivers/BluetoothComm/BluetoothClassicComm.c **** 		NewestLfDataReport.CurrMapData.TravelledDistance = SyncIdIter;
 1205              		.loc 1 442 39 discriminator 2 view .LVU351
 1206 0050 1B68     		ldr	r3, [r3]	@ float
 1207 0052 C4F81530 		str	r3, [r4, #21]	@ unaligned
 443:Drivers/BluetoothComm/BluetoothClassicComm.c **** 		NewestLfDataReport.CurrMapData.PosO = M_PI * sin(2 * M_PI * WaveHelper);
 1208              		.loc 1 443 3 is_stmt 1 discriminator 2 view .LVU352
 443:Drivers/BluetoothComm/BluetoothClassicComm.c **** 		NewestLfDataReport.CurrMapData.PosO = M_PI * sin(2 * M_PI * WaveHelper);
 1209              		.loc 1 443 52 is_stmt 0 discriminator 2 view .LVU353
 1210 0056 914F     		ldr	r7, .L82+92
 1211 0058 3D78     		ldrb	r5, [r7]	@ zero_extendqisi2
 1212 005a 07EE905A 		vmov	s15, r5	@ int
 1213 005e F8EE677A 		vcvt.f32.u32	s15, s15
 1214 0062 17EE903A 		vmov	r3, s15
 1215 0066 C4F81D30 		str	r3, [r4, #29]	@ unaligned
 444:Drivers/BluetoothComm/BluetoothClassicComm.c **** 		NewestLfDataReport.CurrMapData.WhLftSp = (2 * sin( 2 * M_PI * WaveHelper)) + (0.05 * sin( 2* M_PI
 1216              		.loc 1 444 3 is_stmt 1 discriminator 2 view .LVU354
 444:Drivers/BluetoothComm/BluetoothClassicComm.c **** 		NewestLfDataReport.CurrMapData.WhLftSp = (2 * sin( 2 * M_PI * WaveHelper)) + (0.05 * sin( 2* M_PI
 1217              		.loc 1 444 48 is_stmt 0 discriminator 2 view .LVU355
 1218 006a 8D4B     		ldr	r3, .L82+96
 1219 006c 1868     		ldr	r0, [r3]	@ float
 1220 006e FFF7FEFF 		bl	__aeabi_f2d
 1221              	.LVL81:
 1222 0072 8146     		mov	r9, r0
 1223 0074 8A46     		mov	r10, r1
 1224 0076 72A3     		adr	r3, .L82
 1225 0078 D3E90023 		ldrd	r2, [r3]
 1226 007c FFF7FEFF 		bl	__aeabi_dmul
 1227              	.LVL82:
 1228 0080 41EC180B 		vmov	d8, r0, r1
 1229 0084 41EC100B 		vmov	d0, r0, r1
 1230 0088 FFF7FEFF 		bl	sin
 1231              	.LVL83:
 1232 008c 51EC100B 		vmov	r0, r1, d0
ARM GAS  C:\Users\Teodor\AppData\Local\Temp\cczmnjKd.s 			page 38


 444:Drivers/BluetoothComm/BluetoothClassicComm.c **** 		NewestLfDataReport.CurrMapData.WhLftSp = (2 * sin( 2 * M_PI * WaveHelper)) + (0.05 * sin( 2* M_PI
 1233              		.loc 1 444 46 discriminator 2 view .LVU356
 1234 0090 6DA3     		adr	r3, .L82+8
 1235 0092 D3E90023 		ldrd	r2, [r3]
 1236 0096 8DED000B 		vstr.64	d0, [sp]
 1237 009a FFF7FEFF 		bl	__aeabi_dmul
 1238              	.LVL84:
 1239 009e FFF7FEFF 		bl	__aeabi_d2f
 1240              	.LVL85:
 444:Drivers/BluetoothComm/BluetoothClassicComm.c **** 		NewestLfDataReport.CurrMapData.WhLftSp = (2 * sin( 2 * M_PI * WaveHelper)) + (0.05 * sin( 2* M_PI
 1241              		.loc 1 444 39 discriminator 2 view .LVU357
 1242 00a2 C4F81900 		str	r0, [r4, #25]	@ unaligned
 445:Drivers/BluetoothComm/BluetoothClassicComm.c **** 		NewestLfDataReport.CurrMapData.WhRhtSp = (2 * cos( 2 * M_PI * WaveHelper)) + (0.05 * sin( 2* M_PI
 1243              		.loc 1 445 3 is_stmt 1 discriminator 2 view .LVU358
 445:Drivers/BluetoothComm/BluetoothClassicComm.c **** 		NewestLfDataReport.CurrMapData.WhRhtSp = (2 * cos( 2 * M_PI * WaveHelper)) + (0.05 * sin( 2* M_PI
 1244              		.loc 1 445 47 is_stmt 0 discriminator 2 view .LVU359
 1245 00a6 DDE90001 		ldrd	r0, [sp]
 1246 00aa 0246     		mov	r2, r0
 1247 00ac 0B46     		mov	r3, r1
 1248 00ae FFF7FEFF 		bl	__aeabi_dadd
 1249              	.LVL86:
 1250 00b2 CDE90201 		strd	r0, [sp, #8]
 445:Drivers/BluetoothComm/BluetoothClassicComm.c **** 		NewestLfDataReport.CurrMapData.WhRhtSp = (2 * cos( 2 * M_PI * WaveHelper)) + (0.05 * sin( 2* M_PI
 1251              		.loc 1 445 88 discriminator 2 view .LVU360
 1252 00b6 66A3     		adr	r3, .L82+16
 1253 00b8 D3E90023 		ldrd	r2, [r3]
 1254 00bc 4846     		mov	r0, r9
 1255 00be 5146     		mov	r1, r10
 1256 00c0 FFF7FEFF 		bl	__aeabi_dmul
 1257              	.LVL87:
 1258 00c4 41EC100B 		vmov	d0, r0, r1
 1259 00c8 FFF7FEFF 		bl	sin
 1260              	.LVL88:
 1261 00cc 51EC100B 		vmov	r0, r1, d0
 445:Drivers/BluetoothComm/BluetoothClassicComm.c **** 		NewestLfDataReport.CurrMapData.WhRhtSp = (2 * cos( 2 * M_PI * WaveHelper)) + (0.05 * sin( 2* M_PI
 1262              		.loc 1 445 86 discriminator 2 view .LVU361
 1263 00d0 61A3     		adr	r3, .L82+24
 1264 00d2 D3E90023 		ldrd	r2, [r3]
 1265 00d6 FFF7FEFF 		bl	__aeabi_dmul
 1266              	.LVL89:
 1267 00da 0246     		mov	r2, r0
 1268 00dc 0B46     		mov	r3, r1
 445:Drivers/BluetoothComm/BluetoothClassicComm.c **** 		NewestLfDataReport.CurrMapData.WhRhtSp = (2 * cos( 2 * M_PI * WaveHelper)) + (0.05 * sin( 2* M_PI
 1269              		.loc 1 445 78 discriminator 2 view .LVU362
 1270 00de DDE90201 		ldrd	r0, [sp, #8]
 1271 00e2 FFF7FEFF 		bl	__aeabi_dadd
 1272              	.LVL90:
 1273 00e6 FFF7FEFF 		bl	__aeabi_d2f
 1274              	.LVL91:
 445:Drivers/BluetoothComm/BluetoothClassicComm.c **** 		NewestLfDataReport.CurrMapData.WhRhtSp = (2 * cos( 2 * M_PI * WaveHelper)) + (0.05 * sin( 2* M_PI
 1275              		.loc 1 445 42 discriminator 2 view .LVU363
 1276 00ea C4F80500 		str	r0, [r4, #5]	@ unaligned
 446:Drivers/BluetoothComm/BluetoothClassicComm.c **** 		NewestLfDataReport.CurrMapData.YawRate = (2 * sin( 2 * M_PI * WaveHelper)) + (0.3 * sin( 2* M_PI 
 1277              		.loc 1 446 3 is_stmt 1 discriminator 2 view .LVU364
 446:Drivers/BluetoothComm/BluetoothClassicComm.c **** 		NewestLfDataReport.CurrMapData.YawRate = (2 * sin( 2 * M_PI * WaveHelper)) + (0.3 * sin( 2* M_PI 
 1278              		.loc 1 446 49 is_stmt 0 discriminator 2 view .LVU365
 1279 00ee B0EE480A 		vmov.f32	s0, s16
ARM GAS  C:\Users\Teodor\AppData\Local\Temp\cczmnjKd.s 			page 39


 1280 00f2 F0EE680A 		vmov.f32	s1, s17
 1281 00f6 FFF7FEFF 		bl	cos
 1282              	.LVL92:
 1283 00fa 51EC100B 		vmov	r0, r1, d0
 446:Drivers/BluetoothComm/BluetoothClassicComm.c **** 		NewestLfDataReport.CurrMapData.YawRate = (2 * sin( 2 * M_PI * WaveHelper)) + (0.3 * sin( 2* M_PI 
 1284              		.loc 1 446 47 discriminator 2 view .LVU366
 1285 00fe 10EE102A 		vmov	r2, s0	@ int
 1286 0102 0B46     		mov	r3, r1
 1287 0104 FFF7FEFF 		bl	__aeabi_dadd
 1288              	.LVL93:
 1289 0108 CDE90401 		strd	r0, [sp, #16]
 446:Drivers/BluetoothComm/BluetoothClassicComm.c **** 		NewestLfDataReport.CurrMapData.YawRate = (2 * sin( 2 * M_PI * WaveHelper)) + (0.3 * sin( 2* M_PI 
 1290              		.loc 1 446 88 discriminator 2 view .LVU367
 1291 010c 54A3     		adr	r3, .L82+32
 1292 010e D3E90023 		ldrd	r2, [r3]
 1293 0112 4846     		mov	r0, r9
 1294 0114 5146     		mov	r1, r10
 1295 0116 FFF7FEFF 		bl	__aeabi_dmul
 1296              	.LVL94:
 1297 011a 41EC100B 		vmov	d0, r0, r1
 1298 011e FFF7FEFF 		bl	sin
 1299              	.LVL95:
 1300 0122 51EC100B 		vmov	r0, r1, d0
 446:Drivers/BluetoothComm/BluetoothClassicComm.c **** 		NewestLfDataReport.CurrMapData.YawRate = (2 * sin( 2 * M_PI * WaveHelper)) + (0.3 * sin( 2* M_PI 
 1301              		.loc 1 446 86 discriminator 2 view .LVU368
 1302 0126 4CA3     		adr	r3, .L82+24
 1303 0128 D3E90023 		ldrd	r2, [r3]
 1304 012c FFF7FEFF 		bl	__aeabi_dmul
 1305              	.LVL96:
 1306 0130 0246     		mov	r2, r0
 1307 0132 0B46     		mov	r3, r1
 446:Drivers/BluetoothComm/BluetoothClassicComm.c **** 		NewestLfDataReport.CurrMapData.YawRate = (2 * sin( 2 * M_PI * WaveHelper)) + (0.3 * sin( 2* M_PI 
 1308              		.loc 1 446 78 discriminator 2 view .LVU369
 1309 0134 DDE90401 		ldrd	r0, [sp, #16]
 1310 0138 FFF7FEFF 		bl	__aeabi_dadd
 1311              	.LVL97:
 1312 013c FFF7FEFF 		bl	__aeabi_d2f
 1313              	.LVL98:
 446:Drivers/BluetoothComm/BluetoothClassicComm.c **** 		NewestLfDataReport.CurrMapData.YawRate = (2 * sin( 2 * M_PI * WaveHelper)) + (0.3 * sin( 2* M_PI 
 1314              		.loc 1 446 42 discriminator 2 view .LVU370
 1315 0140 C4F80900 		str	r0, [r4, #9]	@ unaligned
 447:Drivers/BluetoothComm/BluetoothClassicComm.c **** 		NewestLfDataReport.CurrSensorData.SensorData[0] = 40;
 1316              		.loc 1 447 3 is_stmt 1 discriminator 2 view .LVU371
 447:Drivers/BluetoothComm/BluetoothClassicComm.c **** 		NewestLfDataReport.CurrSensorData.SensorData[0] = 40;
 1317              		.loc 1 447 87 is_stmt 0 discriminator 2 view .LVU372
 1318 0144 48A3     		adr	r3, .L82+40
 1319 0146 D3E90023 		ldrd	r2, [r3]
 1320 014a 4846     		mov	r0, r9
 1321 014c 5146     		mov	r1, r10
 1322 014e FFF7FEFF 		bl	__aeabi_dmul
 1323              	.LVL99:
 1324 0152 41EC100B 		vmov	d0, r0, r1
 1325 0156 FFF7FEFF 		bl	sin
 1326              	.LVL100:
 1327 015a 51EC100B 		vmov	r0, r1, d0
 447:Drivers/BluetoothComm/BluetoothClassicComm.c **** 		NewestLfDataReport.CurrSensorData.SensorData[0] = 40;
 1328              		.loc 1 447 85 discriminator 2 view .LVU373
ARM GAS  C:\Users\Teodor\AppData\Local\Temp\cczmnjKd.s 			page 40


 1329 015e 44A3     		adr	r3, .L82+48
 1330 0160 D3E90023 		ldrd	r2, [r3]
 1331 0164 FFF7FEFF 		bl	__aeabi_dmul
 1332              	.LVL101:
 1333 0168 0246     		mov	r2, r0
 1334 016a 0B46     		mov	r3, r1
 447:Drivers/BluetoothComm/BluetoothClassicComm.c **** 		NewestLfDataReport.CurrSensorData.SensorData[0] = 40;
 1335              		.loc 1 447 78 discriminator 2 view .LVU374
 1336 016c DDE90201 		ldrd	r0, [sp, #8]
 1337 0170 FFF7FEFF 		bl	__aeabi_dadd
 1338              	.LVL102:
 1339 0174 FFF7FEFF 		bl	__aeabi_d2f
 1340              	.LVL103:
 447:Drivers/BluetoothComm/BluetoothClassicComm.c **** 		NewestLfDataReport.CurrSensorData.SensorData[0] = 40;
 1341              		.loc 1 447 42 discriminator 2 view .LVU375
 1342 0178 C4F80D00 		str	r0, [r4, #13]	@ unaligned
 448:Drivers/BluetoothComm/BluetoothClassicComm.c **** 		NewestLfDataReport.CurrSensorData.SensorData[1] = 40;
 1343              		.loc 1 448 3 is_stmt 1 discriminator 2 view .LVU376
 448:Drivers/BluetoothComm/BluetoothClassicComm.c **** 		NewestLfDataReport.CurrSensorData.SensorData[1] = 40;
 1344              		.loc 1 448 51 is_stmt 0 discriminator 2 view .LVU377
 1345 017c 2823     		movs	r3, #40
 1346 017e 84F82130 		strb	r3, [r4, #33]
 449:Drivers/BluetoothComm/BluetoothClassicComm.c **** 		NewestLfDataReport.CurrSensorData.SensorData[2] = 40;
 1347              		.loc 1 449 3 is_stmt 1 discriminator 2 view .LVU378
 449:Drivers/BluetoothComm/BluetoothClassicComm.c **** 		NewestLfDataReport.CurrSensorData.SensorData[2] = 40;
 1348              		.loc 1 449 51 is_stmt 0 discriminator 2 view .LVU379
 1349 0182 84F82230 		strb	r3, [r4, #34]
 450:Drivers/BluetoothComm/BluetoothClassicComm.c **** 		NewestLfDataReport.CurrSensorData.SensorData[3] = 63;
 1350              		.loc 1 450 3 is_stmt 1 discriminator 2 view .LVU380
 450:Drivers/BluetoothComm/BluetoothClassicComm.c **** 		NewestLfDataReport.CurrSensorData.SensorData[3] = 63;
 1351              		.loc 1 450 51 is_stmt 0 discriminator 2 view .LVU381
 1352 0186 84F82330 		strb	r3, [r4, #35]
 451:Drivers/BluetoothComm/BluetoothClassicComm.c **** 		NewestLfDataReport.CurrSensorData.SensorData[4] = 64;
 1353              		.loc 1 451 3 is_stmt 1 discriminator 2 view .LVU382
 451:Drivers/BluetoothComm/BluetoothClassicComm.c **** 		NewestLfDataReport.CurrSensorData.SensorData[4] = 64;
 1354              		.loc 1 451 51 is_stmt 0 discriminator 2 view .LVU383
 1355 018a 3F22     		movs	r2, #63
 1356 018c 84F82420 		strb	r2, [r4, #36]
 452:Drivers/BluetoothComm/BluetoothClassicComm.c **** 		NewestLfDataReport.CurrSensorData.SensorData[5] = (uint8_t)(65 + SyncIdIter);
 1357              		.loc 1 452 3 is_stmt 1 discriminator 2 view .LVU384
 452:Drivers/BluetoothComm/BluetoothClassicComm.c **** 		NewestLfDataReport.CurrSensorData.SensorData[5] = (uint8_t)(65 + SyncIdIter);
 1358              		.loc 1 452 51 is_stmt 0 discriminator 2 view .LVU385
 1359 0190 4022     		movs	r2, #64
 1360 0192 84F82520 		strb	r2, [r4, #37]
 453:Drivers/BluetoothComm/BluetoothClassicComm.c **** 		NewestLfDataReport.CurrSensorData.SensorData[6] = (uint8_t)(66 + SyncIdIter);
 1361              		.loc 1 453 3 is_stmt 1 discriminator 2 view .LVU386
 453:Drivers/BluetoothComm/BluetoothClassicComm.c **** 		NewestLfDataReport.CurrSensorData.SensorData[6] = (uint8_t)(66 + SyncIdIter);
 1362              		.loc 1 453 53 is_stmt 0 discriminator 2 view .LVU387
 1363 0196 05F14102 		add	r2, r5, #65
 453:Drivers/BluetoothComm/BluetoothClassicComm.c **** 		NewestLfDataReport.CurrSensorData.SensorData[6] = (uint8_t)(66 + SyncIdIter);
 1364              		.loc 1 453 51 discriminator 2 view .LVU388
 1365 019a 84F82620 		strb	r2, [r4, #38]
 454:Drivers/BluetoothComm/BluetoothClassicComm.c **** 		NewestLfDataReport.CurrSensorData.SensorData[7] = 40;
 1366              		.loc 1 454 3 is_stmt 1 discriminator 2 view .LVU389
 454:Drivers/BluetoothComm/BluetoothClassicComm.c **** 		NewestLfDataReport.CurrSensorData.SensorData[7] = 40;
 1367              		.loc 1 454 53 is_stmt 0 discriminator 2 view .LVU390
 1368 019e 05F14202 		add	r2, r5, #66
ARM GAS  C:\Users\Teodor\AppData\Local\Temp\cczmnjKd.s 			page 41


 454:Drivers/BluetoothComm/BluetoothClassicComm.c **** 		NewestLfDataReport.CurrSensorData.SensorData[7] = 40;
 1369              		.loc 1 454 51 discriminator 2 view .LVU391
 1370 01a2 84F82720 		strb	r2, [r4, #39]
 455:Drivers/BluetoothComm/BluetoothClassicComm.c **** 		NewestLfDataReport.CurrSensorData.SensorData[8] = 40;
 1371              		.loc 1 455 3 is_stmt 1 discriminator 2 view .LVU392
 455:Drivers/BluetoothComm/BluetoothClassicComm.c **** 		NewestLfDataReport.CurrSensorData.SensorData[8] = 40;
 1372              		.loc 1 455 51 is_stmt 0 discriminator 2 view .LVU393
 1373 01a6 84F82830 		strb	r3, [r4, #40]
 456:Drivers/BluetoothComm/BluetoothClassicComm.c **** 		NewestLfDataReport.CurrSensorData.SensorData[9] = 40;
 1374              		.loc 1 456 3 is_stmt 1 discriminator 2 view .LVU394
 456:Drivers/BluetoothComm/BluetoothClassicComm.c **** 		NewestLfDataReport.CurrSensorData.SensorData[9] = 40;
 1375              		.loc 1 456 51 is_stmt 0 discriminator 2 view .LVU395
 1376 01aa 84F82930 		strb	r3, [r4, #41]
 457:Drivers/BluetoothComm/BluetoothClassicComm.c **** 		NewestLfDataReport.CurrSensorData.SensorData[10] = 40;
 1377              		.loc 1 457 3 is_stmt 1 discriminator 2 view .LVU396
 457:Drivers/BluetoothComm/BluetoothClassicComm.c **** 		NewestLfDataReport.CurrSensorData.SensorData[10] = 40;
 1378              		.loc 1 457 51 is_stmt 0 discriminator 2 view .LVU397
 1379 01ae 84F82A30 		strb	r3, [r4, #42]
 458:Drivers/BluetoothComm/BluetoothClassicComm.c **** 		NewestLfDataReport.CurrSensorData.SensorData[11] = 40;
 1380              		.loc 1 458 3 is_stmt 1 discriminator 2 view .LVU398
 458:Drivers/BluetoothComm/BluetoothClassicComm.c **** 		NewestLfDataReport.CurrSensorData.SensorData[11] = 40;
 1381              		.loc 1 458 52 is_stmt 0 discriminator 2 view .LVU399
 1382 01b2 84F82B30 		strb	r3, [r4, #43]
 459:Drivers/BluetoothComm/BluetoothClassicComm.c **** 		NewestLfDataReport.CurrSensorData.LastLeftLinePosConfidence = SyncIdIter;
 1383              		.loc 1 459 3 is_stmt 1 discriminator 2 view .LVU400
 459:Drivers/BluetoothComm/BluetoothClassicComm.c **** 		NewestLfDataReport.CurrSensorData.LastLeftLinePosConfidence = SyncIdIter;
 1384              		.loc 1 459 52 is_stmt 0 discriminator 2 view .LVU401
 1385 01b6 84F82C30 		strb	r3, [r4, #44]
 460:Drivers/BluetoothComm/BluetoothClassicComm.c **** 		NewestLfDataReport.CurrSensorData.LastRightLinePosConfidence = SyncIdIter+5;
 1386              		.loc 1 460 3 is_stmt 1 discriminator 2 view .LVU402
 460:Drivers/BluetoothComm/BluetoothClassicComm.c **** 		NewestLfDataReport.CurrSensorData.LastRightLinePosConfidence = SyncIdIter+5;
 1387              		.loc 1 460 63 is_stmt 0 discriminator 2 view .LVU403
 1388 01ba 84F83150 		strb	r5, [r4, #49]
 461:Drivers/BluetoothComm/BluetoothClassicComm.c **** 		NewestLfDataReport.CurrSensorData.PosError = 1 * sin( 2 * M_PI * WaveHelper);
 1389              		.loc 1 461 3 is_stmt 1 discriminator 2 view .LVU404
 461:Drivers/BluetoothComm/BluetoothClassicComm.c **** 		NewestLfDataReport.CurrSensorData.PosError = 1 * sin( 2 * M_PI * WaveHelper);
 1390              		.loc 1 461 76 is_stmt 0 discriminator 2 view .LVU405
 1391 01be 6B1D     		adds	r3, r5, #5
 461:Drivers/BluetoothComm/BluetoothClassicComm.c **** 		NewestLfDataReport.CurrSensorData.PosError = 1 * sin( 2 * M_PI * WaveHelper);
 1392              		.loc 1 461 64 discriminator 2 view .LVU406
 1393 01c0 84F83230 		strb	r3, [r4, #50]
 462:Drivers/BluetoothComm/BluetoothClassicComm.c **** 		NewestLfDataReport.LinePidRegData.LinePidRegVal = (2 * sin( 2 * M_PI * WaveHelper)) + (0.2 * sin(
 1394              		.loc 1 462 3 is_stmt 1 discriminator 2 view .LVU407
 462:Drivers/BluetoothComm/BluetoothClassicComm.c **** 		NewestLfDataReport.LinePidRegData.LinePidRegVal = (2 * sin( 2 * M_PI * WaveHelper)) + (0.2 * sin(
 1395              		.loc 1 462 50 is_stmt 0 discriminator 2 view .LVU408
 1396 01c4 DDE90001 		ldrd	r0, [sp]
 1397 01c8 FFF7FEFF 		bl	__aeabi_d2f
 1398              	.LVL104:
 462:Drivers/BluetoothComm/BluetoothClassicComm.c **** 		NewestLfDataReport.LinePidRegData.LinePidRegVal = (2 * sin( 2 * M_PI * WaveHelper)) + (0.2 * sin(
 1399              		.loc 1 462 46 discriminator 2 view .LVU409
 1400 01cc C4F82D00 		str	r0, [r4, #45]	@ unaligned
 463:Drivers/BluetoothComm/BluetoothClassicComm.c **** 
 1401              		.loc 1 463 3 is_stmt 1 discriminator 2 view .LVU410
 463:Drivers/BluetoothComm/BluetoothClassicComm.c **** 
 1402              		.loc 1 463 96 is_stmt 0 discriminator 2 view .LVU411
 1403 01d0 29A3     		adr	r3, .L82+56
 1404 01d2 D3E90023 		ldrd	r2, [r3]
ARM GAS  C:\Users\Teodor\AppData\Local\Temp\cczmnjKd.s 			page 42


 1405 01d6 4846     		mov	r0, r9
 1406 01d8 5146     		mov	r1, r10
 1407 01da FFF7FEFF 		bl	__aeabi_dmul
 1408              	.LVL105:
 1409 01de 41EC100B 		vmov	d0, r0, r1
 1410 01e2 FFF7FEFF 		bl	sin
 1411              	.LVL106:
 1412 01e6 51EC100B 		vmov	r0, r1, d0
 463:Drivers/BluetoothComm/BluetoothClassicComm.c **** 
 1413              		.loc 1 463 94 discriminator 2 view .LVU412
 1414 01ea 25A3     		adr	r3, .L82+64
 1415 01ec D3E90023 		ldrd	r2, [r3]
 1416 01f0 FFF7FEFF 		bl	__aeabi_dmul
 1417              	.LVL107:
 1418 01f4 0246     		mov	r2, r0
 1419 01f6 0B46     		mov	r3, r1
 463:Drivers/BluetoothComm/BluetoothClassicComm.c **** 
 1420              		.loc 1 463 87 discriminator 2 view .LVU413
 1421 01f8 DDE90201 		ldrd	r0, [sp, #8]
 1422 01fc FFF7FEFF 		bl	__aeabi_dadd
 1423              	.LVL108:
 1424 0200 FFF7FEFF 		bl	__aeabi_d2f
 1425              	.LVL109:
 463:Drivers/BluetoothComm/BluetoothClassicComm.c **** 
 1426              		.loc 1 463 51 discriminator 2 view .LVU414
 1427 0204 C4F83300 		str	r0, [r4, #51]	@ unaligned
 463:Drivers/BluetoothComm/BluetoothClassicComm.c **** 
 1428              		.loc 1 463 129 is_stmt 1 discriminator 2 view .LVU415
 465:Drivers/BluetoothComm/BluetoothClassicComm.c **** 		ProbeIterator++;
 1429              		.loc 1 465 3 discriminator 2 view .LVU416
 465:Drivers/BluetoothComm/BluetoothClassicComm.c **** 		ProbeIterator++;
 1430              		.loc 1 465 27 is_stmt 0 discriminator 2 view .LVU417
 1431 0208 1FA3     		adr	r3, .L82+72
 1432 020a D3E90023 		ldrd	r2, [r3]
 1433 020e 4846     		mov	r0, r9
 1434 0210 5146     		mov	r1, r10
 1435 0212 FFF7FEFF 		bl	__aeabi_dadd
 1436              	.LVL110:
 1437 0216 FFF7FEFF 		bl	__aeabi_d2f
 1438              	.LVL111:
 465:Drivers/BluetoothComm/BluetoothClassicComm.c **** 		ProbeIterator++;
 1439              		.loc 1 465 14 discriminator 2 view .LVU418
 1440 021a 214B     		ldr	r3, .L82+96
 1441 021c 1860     		str	r0, [r3]	@ float
 466:Drivers/BluetoothComm/BluetoothClassicComm.c **** 		SyncIdIter++;
 1442              		.loc 1 466 3 is_stmt 1 discriminator 2 view .LVU419
 466:Drivers/BluetoothComm/BluetoothClassicComm.c **** 		SyncIdIter++;
 1443              		.loc 1 466 16 is_stmt 0 discriminator 2 view .LVU420
 1444 021e 0136     		adds	r6, r6, #1
 1445 0220 A8F80060 		strh	r6, [r8]	@ movhi
 467:Drivers/BluetoothComm/BluetoothClassicComm.c **** 	
 1446              		.loc 1 467 3 is_stmt 1 discriminator 2 view .LVU421
 467:Drivers/BluetoothComm/BluetoothClassicComm.c **** 	
 1447              		.loc 1 467 13 is_stmt 0 discriminator 2 view .LVU422
 1448 0224 0135     		adds	r5, r5, #1
 1449 0226 3D70     		strb	r5, [r7]
 433:Drivers/BluetoothComm/BluetoothClassicComm.c **** 	{
ARM GAS  C:\Users\Teodor\AppData\Local\Temp\cczmnjKd.s 			page 43


 1450              		.loc 1 433 21 is_stmt 1 discriminator 2 view .LVU423
 433:Drivers/BluetoothComm/BluetoothClassicComm.c **** 	{
 1451              		.loc 1 433 22 is_stmt 0 discriminator 2 view .LVU424
 1452 0228 0BF1010B 		add	fp, fp, #1
 1453              	.LVL112:
 433:Drivers/BluetoothComm/BluetoothClassicComm.c **** 	{
 1454              		.loc 1 433 22 discriminator 2 view .LVU425
 1455 022c EFE6     		b	.L77
 1456              	.L81:
 437:Drivers/BluetoothComm/BluetoothClassicComm.c **** 			ProbeIterator = 1U;
 1457              		.loc 1 437 4 is_stmt 1 view .LVU426
 1458 022e FFF7FEFF 		bl	Sim_Create_XY_FakeMap
 1459              	.LVL113:
 438:Drivers/BluetoothComm/BluetoothClassicComm.c **** 		}
 1460              		.loc 1 438 4 view .LVU427
 438:Drivers/BluetoothComm/BluetoothClassicComm.c **** 		}
 1461              		.loc 1 438 18 is_stmt 0 view .LVU428
 1462 0232 174B     		ldr	r3, .L82+80
 1463 0234 0122     		movs	r2, #1
 1464 0236 1A80     		strh	r2, [r3]	@ movhi
 1465 0238 F7E6     		b	.L78
 1466              	.L83:
 1467 023a 00BFAFF3 		.align	3
 1467      0080
 1468              	.L82:
 1469 0240 182D4454 		.word	1413754136
 1470 0244 FB211940 		.word	1075388923
 1471 0248 182D4454 		.word	1413754136
 1472 024c FB210940 		.word	1074340347
 1473 0250 D221337F 		.word	2134057426
 1474 0254 7CD93240 		.word	1077074300
 1475 0258 9A999999 		.word	-1717986918
 1476 025c 9999A93F 		.word	1068079513
 1477 0260 75A7BBE9 		.word	-373577867
 1478 0264 BBFD4540 		.word	1078328763
 1479 0268 5E385529 		.word	693450846
 1480 026c 7A6A4F40 		.word	1078946426
 1481 0270 33333333 		.word	858993459
 1482 0274 3333D33F 		.word	1070805811
 1483 0278 A4647734 		.word	880239780
 1484 027c 9C6B5440 		.word	1079274396
 1485 0280 9A999999 		.word	-1717986918
 1486 0284 9999C93F 		.word	1070176665
 1487 0288 7B14AE47 		.word	1202590843
 1488 028c E17A843F 		.word	1065646817
 1489 0290 00000000 		.word	.LANCHOR16
 1490 0294 00000000 		.word	.LANCHOR3
 1491 0298 00000000 		.word	.LANCHOR1
 1492 029c 00000000 		.word	.LANCHOR17
 1493 02a0 00000000 		.word	.LANCHOR18
 1494              	.LBE9:
 1495              		.cfi_endproc
 1496              	.LFE141:
 1498              		.section	.text.BaseDataReporterTask,"ax",%progbits
 1499              		.align	1
 1500              		.global	BaseDataReporterTask
 1501              		.syntax unified
ARM GAS  C:\Users\Teodor\AppData\Local\Temp\cczmnjKd.s 			page 44


 1502              		.thumb
 1503              		.thumb_func
 1505              	BaseDataReporterTask:
 1506              	.LFB142:
 475:Drivers/BluetoothComm/BluetoothClassicComm.c **** 	static uint32_t PreviousReportTransmitTime = 0;
 1507              		.loc 1 475 1 is_stmt 1 view -0
 1508              		.cfi_startproc
 1509              		@ args = 0, pretend = 0, frame = 0
 1510              		@ frame_needed = 0, uses_anonymous_args = 0
 1511 0000 08B5     		push	{r3, lr}
 1512              	.LCFI21:
 1513              		.cfi_def_cfa_offset 8
 1514              		.cfi_offset 3, -8
 1515              		.cfi_offset 14, -4
 476:Drivers/BluetoothComm/BluetoothClassicComm.c **** 
 1516              		.loc 1 476 2 view .LVU430
 478:Drivers/BluetoothComm/BluetoothClassicComm.c **** 			&& (TrueDataLogging == LoggingState))
 1517              		.loc 1 478 2 view .LVU431
 478:Drivers/BluetoothComm/BluetoothClassicComm.c **** 			&& (TrueDataLogging == LoggingState))
 1518              		.loc 1 478 7 is_stmt 0 view .LVU432
 1519 0002 FFF7FEFF 		bl	HAL_GetTick
 1520              	.LVL114:
 478:Drivers/BluetoothComm/BluetoothClassicComm.c **** 			&& (TrueDataLogging == LoggingState))
 1521              		.loc 1 478 21 view .LVU433
 1522 0006 124B     		ldr	r3, .L90
 1523 0008 1B68     		ldr	r3, [r3]
 1524 000a C01A     		subs	r0, r0, r3
 478:Drivers/BluetoothComm/BluetoothClassicComm.c **** 			&& (TrueDataLogging == LoggingState))
 1525              		.loc 1 478 4 view .LVU434
 1526 000c 1328     		cmp	r0, #19
 1527 000e 03D9     		bls	.L85
 479:Drivers/BluetoothComm/BluetoothClassicComm.c **** 	{
 1528              		.loc 1 479 24 view .LVU435
 1529 0010 104B     		ldr	r3, .L90+4
 1530 0012 1B78     		ldrb	r3, [r3]	@ zero_extendqisi2
 479:Drivers/BluetoothComm/BluetoothClassicComm.c **** 	{
 1531              		.loc 1 479 4 view .LVU436
 1532 0014 012B     		cmp	r3, #1
 1533 0016 0BD0     		beq	.L88
 1534              	.L85:
 488:Drivers/BluetoothComm/BluetoothClassicComm.c **** 						&& (SimulatorDataLogging == LoggingState) )
 1535              		.loc 1 488 7 is_stmt 1 view .LVU437
 488:Drivers/BluetoothComm/BluetoothClassicComm.c **** 						&& (SimulatorDataLogging == LoggingState) )
 1536              		.loc 1 488 13 is_stmt 0 view .LVU438
 1537 0018 FFF7FEFF 		bl	HAL_GetTick
 1538              	.LVL115:
 488:Drivers/BluetoothComm/BluetoothClassicComm.c **** 						&& (SimulatorDataLogging == LoggingState) )
 1539              		.loc 1 488 27 view .LVU439
 1540 001c 0C4B     		ldr	r3, .L90
 1541 001e 1B68     		ldr	r3, [r3]
 1542 0020 C01A     		subs	r0, r0, r3
 488:Drivers/BluetoothComm/BluetoothClassicComm.c **** 						&& (SimulatorDataLogging == LoggingState) )
 1543              		.loc 1 488 9 view .LVU440
 1544 0022 1328     		cmp	r0, #19
 1545 0024 03D9     		bls	.L84
 489:Drivers/BluetoothComm/BluetoothClassicComm.c **** 	{
 1546              		.loc 1 489 32 view .LVU441
ARM GAS  C:\Users\Teodor\AppData\Local\Temp\cczmnjKd.s 			page 45


 1547 0026 0B4B     		ldr	r3, .L90+4
 1548 0028 1B78     		ldrb	r3, [r3]	@ zero_extendqisi2
 489:Drivers/BluetoothComm/BluetoothClassicComm.c **** 	{
 1549              		.loc 1 489 7 view .LVU442
 1550 002a 022B     		cmp	r3, #2
 1551 002c 07D0     		beq	.L89
 1552              	.L84:
 499:Drivers/BluetoothComm/BluetoothClassicComm.c **** 
 1553              		.loc 1 499 1 view .LVU443
 1554 002e 08BD     		pop	{r3, pc}
 1555              	.L88:
 481:Drivers/BluetoothComm/BluetoothClassicComm.c **** 		TransmitLfBaseDataReport(); 
 1556              		.loc 1 481 3 is_stmt 1 view .LVU444
 481:Drivers/BluetoothComm/BluetoothClassicComm.c **** 		TransmitLfBaseDataReport(); 
 1557              		.loc 1 481 32 is_stmt 0 view .LVU445
 1558 0030 FFF7FEFF 		bl	HAL_GetTick
 1559              	.LVL116:
 481:Drivers/BluetoothComm/BluetoothClassicComm.c **** 		TransmitLfBaseDataReport(); 
 1560              		.loc 1 481 30 view .LVU446
 1561 0034 064B     		ldr	r3, .L90
 1562 0036 1860     		str	r0, [r3]
 482:Drivers/BluetoothComm/BluetoothClassicComm.c **** 		/*Base data report struct is updated asynchronicly 
 1563              		.loc 1 482 3 is_stmt 1 view .LVU447
 1564 0038 FFF7FEFF 		bl	TransmitLfBaseDataReport
 1565              	.LVL117:
 1566 003c F7E7     		b	.L84
 1567              	.L89:
 491:Drivers/BluetoothComm/BluetoothClassicComm.c **** 		Sim_FakeBaseDataReportTask();
 1568              		.loc 1 491 3 view .LVU448
 491:Drivers/BluetoothComm/BluetoothClassicComm.c **** 		Sim_FakeBaseDataReportTask();
 1569              		.loc 1 491 32 is_stmt 0 view .LVU449
 1570 003e FFF7FEFF 		bl	HAL_GetTick
 1571              	.LVL118:
 491:Drivers/BluetoothComm/BluetoothClassicComm.c **** 		Sim_FakeBaseDataReportTask();
 1572              		.loc 1 491 30 view .LVU450
 1573 0042 034B     		ldr	r3, .L90
 1574 0044 1860     		str	r0, [r3]
 492:Drivers/BluetoothComm/BluetoothClassicComm.c **** 		TransmitLfBaseDataReport();
 1575              		.loc 1 492 3 is_stmt 1 view .LVU451
 1576 0046 FFF7FEFF 		bl	Sim_FakeBaseDataReportTask
 1577              	.LVL119:
 493:Drivers/BluetoothComm/BluetoothClassicComm.c **** 	}
 1578              		.loc 1 493 3 view .LVU452
 1579 004a FFF7FEFF 		bl	TransmitLfBaseDataReport
 1580              	.LVL120:
 498:Drivers/BluetoothComm/BluetoothClassicComm.c **** }
 1581              		.loc 1 498 2 view .LVU453
 499:Drivers/BluetoothComm/BluetoothClassicComm.c **** 
 1582              		.loc 1 499 1 is_stmt 0 view .LVU454
 1583 004e EEE7     		b	.L84
 1584              	.L91:
 1585              		.align	2
 1586              	.L90:
 1587 0050 00000000 		.word	.LANCHOR19
 1588 0054 00000000 		.word	.LANCHOR20
 1589              		.cfi_endproc
 1590              	.LFE142:
ARM GAS  C:\Users\Teodor\AppData\Local\Temp\cczmnjKd.s 			page 46


 1592              		.section	.text.BLU_Init,"ax",%progbits
 1593              		.align	1
 1594              		.global	BLU_Init
 1595              		.syntax unified
 1596              		.thumb
 1597              		.thumb_func
 1599              	BLU_Init:
 1600              	.LFB145:
 702:Drivers/BluetoothComm/BluetoothClassicComm.c **** 
 703:Drivers/BluetoothComm/BluetoothClassicComm.c **** 
 704:Drivers/BluetoothComm/BluetoothClassicComm.c **** /*
 705:Drivers/BluetoothComm/BluetoothClassicComm.c **** *********************************************************************************************
 706:Drivers/BluetoothComm/BluetoothClassicComm.c **** *Interface functions implementation
 707:Drivers/BluetoothComm/BluetoothClassicComm.c **** *********************************************************************************************
 708:Drivers/BluetoothComm/BluetoothClassicComm.c **** */
 709:Drivers/BluetoothComm/BluetoothClassicComm.c **** #define API_FUNCTIONS_BluetoothClassicComm
 710:Drivers/BluetoothComm/BluetoothClassicComm.c **** 
 711:Drivers/BluetoothComm/BluetoothClassicComm.c **** void BLU_Init(void)
 712:Drivers/BluetoothComm/BluetoothClassicComm.c **** {
 1601              		.loc 1 712 1 is_stmt 1 view -0
 1602              		.cfi_startproc
 1603              		@ args = 0, pretend = 0, frame = 0
 1604              		@ frame_needed = 0, uses_anonymous_args = 0
 1605 0000 08B5     		push	{r3, lr}
 1606              	.LCFI22:
 1607              		.cfi_def_cfa_offset 8
 1608              		.cfi_offset 3, -8
 1609              		.cfi_offset 14, -4
 713:Drivers/BluetoothComm/BluetoothClassicComm.c **** 	// HAL_UART1_CostumUserInit(9600); /*Configure default HC-06 uart speed for few operations*/
 714:Drivers/BluetoothComm/BluetoothClassicComm.c **** 	// HAL_Delay(200); /* While startup after power on
 715:Drivers/BluetoothComm/BluetoothClassicComm.c **** 	// 	* and after experimental test it was observed that short delay is required to stabilize blueto
 716:Drivers/BluetoothComm/BluetoothClassicComm.c **** 	// 	* It is required for AT Commands like AT+NAME...
 717:Drivers/BluetoothComm/BluetoothClassicComm.c **** 	// 	* */
 718:Drivers/BluetoothComm/BluetoothClassicComm.c **** 
 719:Drivers/BluetoothComm/BluetoothClassicComm.c **** 	// HAL_UART_Transmit(&huart1, (uint8_t *)"AT+BAUDA",8,1000);
 720:Drivers/BluetoothComm/BluetoothClassicComm.c **** 	// HAL_Delay(500);
 721:Drivers/BluetoothComm/BluetoothClassicComm.c **** 	//HAL_UART1_CostumUserInit(9600); /*We are almost sure that bluetooth
 722:Drivers/BluetoothComm/BluetoothClassicComm.c **** 										//* BaudRate is now configured as expected*/
 723:Drivers/BluetoothComm/BluetoothClassicComm.c **** 	// HAL_Delay(500);
 724:Drivers/BluetoothComm/BluetoothClassicComm.c **** 
 725:Drivers/BluetoothComm/BluetoothClassicComm.c **** 	// if(true == DevNameUpdateFlag)
 726:Drivers/BluetoothComm/BluetoothClassicComm.c **** 	// {
 727:Drivers/BluetoothComm/BluetoothClassicComm.c **** 
 728:Drivers/BluetoothComm/BluetoothClassicComm.c **** 	// 	char DevName[16];
 729:Drivers/BluetoothComm/BluetoothClassicComm.c **** 	// 	char FakeRecBuf[20];
 730:Drivers/BluetoothComm/BluetoothClassicComm.c **** 	// 	char DevNameFullCommandBuffor[16+7+2] = "AT+NAME";
 731:Drivers/BluetoothComm/BluetoothClassicComm.c **** 	// 	uint8_t DevNameSize =7;
 732:Drivers/BluetoothComm/BluetoothClassicComm.c **** 
 733:Drivers/BluetoothComm/BluetoothClassicComm.c **** 	// 	for(int i=0; i<16; i++)
 734:Drivers/BluetoothComm/BluetoothClassicComm.c **** 	// 	{
 735:Drivers/BluetoothComm/BluetoothClassicComm.c **** 	// 		if(DevName[i] == '\0'){
 736:Drivers/BluetoothComm/BluetoothClassicComm.c **** 	// 			break;
 737:Drivers/BluetoothComm/BluetoothClassicComm.c **** 	// 		}
 738:Drivers/BluetoothComm/BluetoothClassicComm.c **** 	// 		DevNameSize++;
 739:Drivers/BluetoothComm/BluetoothClassicComm.c **** 	// 	}
 740:Drivers/BluetoothComm/BluetoothClassicComm.c **** 
 741:Drivers/BluetoothComm/BluetoothClassicComm.c **** 	// 	for(int i=7; i<(DevNameSize+7); i++){
ARM GAS  C:\Users\Teodor\AppData\Local\Temp\cczmnjKd.s 			page 47


 742:Drivers/BluetoothComm/BluetoothClassicComm.c **** 	// 		DevNameFullCommandBuffor[i] = DevName[i-7];
 743:Drivers/BluetoothComm/BluetoothClassicComm.c **** 	// 	}
 744:Drivers/BluetoothComm/BluetoothClassicComm.c **** 
 745:Drivers/BluetoothComm/BluetoothClassicComm.c **** 	// 	HAL_UART_Transmit_DMA(&huart1, (uint8_t *)DevNameFullCommandBuffor, BLU_SINGLE_MESSAGE_SIZE);
 746:Drivers/BluetoothComm/BluetoothClassicComm.c **** 	// 	HAL_UART_Receive(&huart1, (uint8_t *)FakeRecBuf, 20,100);
 747:Drivers/BluetoothComm/BluetoothClassicComm.c **** 	// 	//	HAL_Delay(50); /*Short delay to ignore answer :) */
 748:Drivers/BluetoothComm/BluetoothClassicComm.c **** 	// }
 749:Drivers/BluetoothComm/BluetoothClassicComm.c **** 
 750:Drivers/BluetoothComm/BluetoothClassicComm.c **** 	// HAL_UART_Receive_DMA(&huart1, &BluMainReceiveMessagesTab[0][0], BLU_SINGLE_REC_MESSAGE_SIZE);
 751:Drivers/BluetoothComm/BluetoothClassicComm.c **** 	HAL_UARTEx_ReceiveToIdle_DMA(&huart1, &BluMainReceiveMessagesTab[0][0], BLU_SINGLE_REC_MESSAGE_SIZ
 1610              		.loc 1 751 2 view .LVU456
 1611 0002 6422     		movs	r2, #100
 1612 0004 0349     		ldr	r1, .L94
 1613 0006 0448     		ldr	r0, .L94+4
 1614 0008 FFF7FEFF 		bl	HAL_UARTEx_ReceiveToIdle_DMA
 1615              	.LVL121:
 752:Drivers/BluetoothComm/BluetoothClassicComm.c **** 	Sim_Create_XY_FakeMap();
 1616              		.loc 1 752 2 view .LVU457
 1617 000c FFF7FEFF 		bl	Sim_Create_XY_FakeMap
 1618              	.LVL122:
 753:Drivers/BluetoothComm/BluetoothClassicComm.c **** 
 754:Drivers/BluetoothComm/BluetoothClassicComm.c **** }
 1619              		.loc 1 754 1 is_stmt 0 view .LVU458
 1620 0010 08BD     		pop	{r3, pc}
 1621              	.L95:
 1622 0012 00BF     		.align	2
 1623              	.L94:
 1624 0014 00000000 		.word	BluMainReceiveMessagesTab
 1625 0018 00000000 		.word	huart1
 1626              		.cfi_endproc
 1627              	.LFE145:
 1629              		.section	.text.BLU_ReportMapData,"ax",%progbits
 1630              		.align	1
 1631              		.global	BLU_ReportMapData
 1632              		.syntax unified
 1633              		.thumb
 1634              		.thumb_func
 1636              	BLU_ReportMapData:
 1637              	.LVL123:
 1638              	.LFB147:
 755:Drivers/BluetoothComm/BluetoothClassicComm.c **** 
 756:Drivers/BluetoothComm/BluetoothClassicComm.c **** void BLU_Task(void)
 757:Drivers/BluetoothComm/BluetoothClassicComm.c **** {
 758:Drivers/BluetoothComm/BluetoothClassicComm.c **** 	BaseDataReporterTask();
 759:Drivers/BluetoothComm/BluetoothClassicComm.c **** 	ReceiveDataHandler();
 760:Drivers/BluetoothComm/BluetoothClassicComm.c **** 	TransmitDataHandler();
 761:Drivers/BluetoothComm/BluetoothClassicComm.c **** }
 762:Drivers/BluetoothComm/BluetoothClassicComm.c **** 
 763:Drivers/BluetoothComm/BluetoothClassicComm.c **** void BLU_ReportMapData(BLU_MapDataReport_t *MapData)
 764:Drivers/BluetoothComm/BluetoothClassicComm.c **** {
 1639              		.loc 1 764 1 is_stmt 1 view -0
 1640              		.cfi_startproc
 1641              		@ args = 0, pretend = 0, frame = 0
 1642              		@ frame_needed = 0, uses_anonymous_args = 0
 1643              		.loc 1 764 1 is_stmt 0 view .LVU460
 1644 0000 00B5     		push	{lr}
 1645              	.LCFI23:
ARM GAS  C:\Users\Teodor\AppData\Local\Temp\cczmnjKd.s 			page 48


 1646              		.cfi_def_cfa_offset 4
 1647              		.cfi_offset 14, -4
 765:Drivers/BluetoothComm/BluetoothClassicComm.c **** 	NewestLfDataReport.CurrMapData = *MapData;
 1648              		.loc 1 765 2 is_stmt 1 view .LVU461
 1649              		.loc 1 765 33 is_stmt 0 view .LVU462
 1650 0002 0D4B     		ldr	r3, .L98
 1651 0004 D0F800C0 		ldr	ip, [r0]	@ unaligned
 1652 0008 4168     		ldr	r1, [r0, #4]	@ unaligned
 1653 000a 8268     		ldr	r2, [r0, #8]	@ unaligned
 1654 000c D0F80CE0 		ldr	lr, [r0, #12]	@ unaligned
 1655 0010 C3F805C0 		str	ip, [r3, #5]	@ unaligned
 1656 0014 C3F80910 		str	r1, [r3, #9]	@ unaligned
 1657 0018 C3F80D20 		str	r2, [r3, #13]	@ unaligned
 1658 001c C3F811E0 		str	lr, [r3, #17]	@ unaligned
 1659 0020 D0F810C0 		ldr	ip, [r0, #16]	@ unaligned
 1660 0024 4169     		ldr	r1, [r0, #20]	@ unaligned
 1661 0026 8269     		ldr	r2, [r0, #24]	@ unaligned
 1662 0028 C3F815C0 		str	ip, [r3, #21]	@ unaligned
 1663 002c C3F81910 		str	r1, [r3, #25]	@ unaligned
 1664 0030 C3F81D20 		str	r2, [r3, #29]	@ unaligned
 766:Drivers/BluetoothComm/BluetoothClassicComm.c **** }
 1665              		.loc 1 766 1 view .LVU463
 1666 0034 5DF804FB 		ldr	pc, [sp], #4
 1667              	.L99:
 1668              		.align	2
 1669              	.L98:
 1670 0038 00000000 		.word	.LANCHOR3
 1671              		.cfi_endproc
 1672              	.LFE147:
 1674              		.section	.text.BLU_ReportSensorData,"ax",%progbits
 1675              		.align	1
 1676              		.global	BLU_ReportSensorData
 1677              		.syntax unified
 1678              		.thumb
 1679              		.thumb_func
 1681              	BLU_ReportSensorData:
 1682              	.LVL124:
 1683              	.LFB148:
 767:Drivers/BluetoothComm/BluetoothClassicComm.c **** 
 768:Drivers/BluetoothComm/BluetoothClassicComm.c **** void BLU_ReportSensorData(BLU_SensorDataReport_t *SensorData)
 769:Drivers/BluetoothComm/BluetoothClassicComm.c **** {
 1684              		.loc 1 769 1 is_stmt 1 view -0
 1685              		.cfi_startproc
 1686              		@ args = 0, pretend = 0, frame = 0
 1687              		@ frame_needed = 0, uses_anonymous_args = 0
 1688              		.loc 1 769 1 is_stmt 0 view .LVU465
 1689 0000 00B5     		push	{lr}
 1690              	.LCFI24:
 1691              		.cfi_def_cfa_offset 4
 1692              		.cfi_offset 14, -4
 770:Drivers/BluetoothComm/BluetoothClassicComm.c **** 	NewestLfDataReport.CurrSensorData = *SensorData;
 1693              		.loc 1 770 2 is_stmt 1 view .LVU466
 1694              		.loc 1 770 36 is_stmt 0 view .LVU467
 1695 0002 0A4B     		ldr	r3, .L102
 1696 0004 D0F800E0 		ldr	lr, [r0]	@ unaligned
 1697 0008 D0F804C0 		ldr	ip, [r0, #4]	@ unaligned
 1698 000c 8168     		ldr	r1, [r0, #8]	@ unaligned
ARM GAS  C:\Users\Teodor\AppData\Local\Temp\cczmnjKd.s 			page 49


 1699 000e C268     		ldr	r2, [r0, #12]	@ unaligned
 1700 0010 C3F821E0 		str	lr, [r3, #33]	@ unaligned
 1701 0014 C3F825C0 		str	ip, [r3, #37]	@ unaligned
 1702 0018 C3F82910 		str	r1, [r3, #41]	@ unaligned
 1703 001c C3F82D20 		str	r2, [r3, #45]	@ unaligned
 1704 0020 028A     		ldrh	r2, [r0, #16]	@ unaligned
 1705 0022 A3F83120 		strh	r2, [r3, #49]	@ unaligned
 771:Drivers/BluetoothComm/BluetoothClassicComm.c **** }
 1706              		.loc 1 771 1 view .LVU468
 1707 0026 5DF804FB 		ldr	pc, [sp], #4
 1708              	.L103:
 1709 002a 00BF     		.align	2
 1710              	.L102:
 1711 002c 00000000 		.word	.LANCHOR3
 1712              		.cfi_endproc
 1713              	.LFE148:
 1715              		.section	.text.BLU_RegisterNvMdataUpdateInfoCallBack,"ax",%progbits
 1716              		.align	1
 1717              		.global	BLU_RegisterNvMdataUpdateInfoCallBack
 1718              		.syntax unified
 1719              		.thumb
 1720              		.thumb_func
 1722              	BLU_RegisterNvMdataUpdateInfoCallBack:
 1723              	.LVL125:
 1724              	.LFB149:
 772:Drivers/BluetoothComm/BluetoothClassicComm.c **** 
 773:Drivers/BluetoothComm/BluetoothClassicComm.c **** void BLU_RegisterNvMdataUpdateInfoCallBack(void UpdateInfoCb(void) )
 774:Drivers/BluetoothComm/BluetoothClassicComm.c **** {
 1725              		.loc 1 774 1 is_stmt 1 view -0
 1726              		.cfi_startproc
 1727              		@ args = 0, pretend = 0, frame = 0
 1728              		@ frame_needed = 0, uses_anonymous_args = 0
 1729              		@ link register save eliminated.
 775:Drivers/BluetoothComm/BluetoothClassicComm.c **** 	for(int i=0; i<BLU_NVM_UPDATE_MAX_CALL_BACKS_COUNT; i++)
 1730              		.loc 1 775 2 view .LVU470
 1731              	.LBB10:
 1732              		.loc 1 775 6 view .LVU471
 1733              		.loc 1 775 10 is_stmt 0 view .LVU472
 1734 0000 0023     		movs	r3, #0
 1735              	.LVL126:
 1736              	.L105:
 1737              		.loc 1 775 15 is_stmt 1 discriminator 1 view .LVU473
 1738              		.loc 1 775 2 is_stmt 0 discriminator 1 view .LVU474
 1739 0002 0E2B     		cmp	r3, #14
 1740 0004 09DC     		bgt	.L109
 776:Drivers/BluetoothComm/BluetoothClassicComm.c **** 	{
 777:Drivers/BluetoothComm/BluetoothClassicComm.c **** 		if(NvmUpdateCallBacks[i] == 0)
 1741              		.loc 1 777 3 is_stmt 1 view .LVU475
 1742              		.loc 1 777 24 is_stmt 0 view .LVU476
 1743 0006 054A     		ldr	r2, .L111
 1744 0008 52F82320 		ldr	r2, [r2, r3, lsl #2]
 1745              		.loc 1 777 5 view .LVU477
 1746 000c 0AB1     		cbz	r2, .L110
 775:Drivers/BluetoothComm/BluetoothClassicComm.c **** 	for(int i=0; i<BLU_NVM_UPDATE_MAX_CALL_BACKS_COUNT; i++)
 1747              		.loc 1 775 54 is_stmt 1 discriminator 2 view .LVU478
 775:Drivers/BluetoothComm/BluetoothClassicComm.c **** 	for(int i=0; i<BLU_NVM_UPDATE_MAX_CALL_BACKS_COUNT; i++)
 1748              		.loc 1 775 55 is_stmt 0 discriminator 2 view .LVU479
ARM GAS  C:\Users\Teodor\AppData\Local\Temp\cczmnjKd.s 			page 50


 1749 000e 0133     		adds	r3, r3, #1
 1750              	.LVL127:
 775:Drivers/BluetoothComm/BluetoothClassicComm.c **** 	for(int i=0; i<BLU_NVM_UPDATE_MAX_CALL_BACKS_COUNT; i++)
 1751              		.loc 1 775 55 discriminator 2 view .LVU480
 1752 0010 F7E7     		b	.L105
 1753              	.L110:
 778:Drivers/BluetoothComm/BluetoothClassicComm.c **** 		{
 779:Drivers/BluetoothComm/BluetoothClassicComm.c **** 			NvmUpdateCallBacks[i] = UpdateInfoCb;
 1754              		.loc 1 779 4 is_stmt 1 view .LVU481
 1755              		.loc 1 779 26 is_stmt 0 view .LVU482
 1756 0012 024A     		ldr	r2, .L111
 1757 0014 42F82300 		str	r0, [r2, r3, lsl #2]
 780:Drivers/BluetoothComm/BluetoothClassicComm.c **** 			break;
 1758              		.loc 1 780 4 is_stmt 1 view .LVU483
 1759 0018 7047     		bx	lr
 1760              	.L109:
 1761              		.loc 1 780 4 is_stmt 0 view .LVU484
 1762              	.LBE10:
 781:Drivers/BluetoothComm/BluetoothClassicComm.c **** 		}
 782:Drivers/BluetoothComm/BluetoothClassicComm.c **** 	}
 783:Drivers/BluetoothComm/BluetoothClassicComm.c **** }
 1763              		.loc 1 783 1 view .LVU485
 1764 001a 7047     		bx	lr
 1765              	.L112:
 1766              		.align	2
 1767              	.L111:
 1768 001c 00000000 		.word	.LANCHOR21
 1769              		.cfi_endproc
 1770              	.LFE149:
 1772              		.section	.text.BLU_RegisterManualCntrlRequestCallBack,"ax",%progbits
 1773              		.align	1
 1774              		.global	BLU_RegisterManualCntrlRequestCallBack
 1775              		.syntax unified
 1776              		.thumb
 1777              		.thumb_func
 1779              	BLU_RegisterManualCntrlRequestCallBack:
 1780              	.LVL128:
 1781              	.LFB150:
 784:Drivers/BluetoothComm/BluetoothClassicComm.c **** 
 785:Drivers/BluetoothComm/BluetoothClassicComm.c **** void BLU_RegisterManualCntrlRequestCallBack(void ManualCtrlReqCb(float vecV_X, float vecV_Y) )
 786:Drivers/BluetoothComm/BluetoothClassicComm.c **** {
 1782              		.loc 1 786 1 is_stmt 1 view -0
 1783              		.cfi_startproc
 1784              		@ args = 0, pretend = 0, frame = 0
 1785              		@ frame_needed = 0, uses_anonymous_args = 0
 1786              		@ link register save eliminated.
 787:Drivers/BluetoothComm/BluetoothClassicComm.c **** 	ManualCtrlRequestCallBackPointer = ManualCtrlReqCb;
 1787              		.loc 1 787 2 view .LVU487
 1788              		.loc 1 787 35 is_stmt 0 view .LVU488
 1789 0000 014B     		ldr	r3, .L114
 1790 0002 1860     		str	r0, [r3]
 788:Drivers/BluetoothComm/BluetoothClassicComm.c **** }
 1791              		.loc 1 788 1 view .LVU489
 1792 0004 7047     		bx	lr
 1793              	.L115:
 1794 0006 00BF     		.align	2
 1795              	.L114:
ARM GAS  C:\Users\Teodor\AppData\Local\Temp\cczmnjKd.s 			page 51


 1796 0008 00000000 		.word	.LANCHOR22
 1797              		.cfi_endproc
 1798              	.LFE150:
 1800              		.section	.text.BLU_isExpectedStateDriving,"ax",%progbits
 1801              		.align	1
 1802              		.global	BLU_isExpectedStateDriving
 1803              		.syntax unified
 1804              		.thumb
 1805              		.thumb_func
 1807              	BLU_isExpectedStateDriving:
 1808              	.LFB151:
 789:Drivers/BluetoothComm/BluetoothClassicComm.c **** 
 790:Drivers/BluetoothComm/BluetoothClassicComm.c **** bool BLU_isExpectedStateDriving(void)
 791:Drivers/BluetoothComm/BluetoothClassicComm.c **** {
 1809              		.loc 1 791 1 is_stmt 1 view -0
 1810              		.cfi_startproc
 1811              		@ args = 0, pretend = 0, frame = 0
 1812              		@ frame_needed = 0, uses_anonymous_args = 0
 1813              		@ link register save eliminated.
 792:Drivers/BluetoothComm/BluetoothClassicComm.c **** 	bool retVal = false;
 1814              		.loc 1 792 2 view .LVU491
 1815              	.LVL129:
 793:Drivers/BluetoothComm/BluetoothClassicComm.c **** 
 794:Drivers/BluetoothComm/BluetoothClassicComm.c **** 	if(InternalRobotState ==  Driving)
 1816              		.loc 1 794 2 view .LVU492
 1817              		.loc 1 794 24 is_stmt 0 view .LVU493
 1818 0000 034B     		ldr	r3, .L119
 1819 0002 1B78     		ldrb	r3, [r3]	@ zero_extendqisi2
 1820              		.loc 1 794 4 view .LVU494
 1821 0004 012B     		cmp	r3, #1
 1822 0006 01D0     		beq	.L118
 792:Drivers/BluetoothComm/BluetoothClassicComm.c **** 	bool retVal = false;
 1823              		.loc 1 792 7 view .LVU495
 1824 0008 0020     		movs	r0, #0
 1825 000a 7047     		bx	lr
 1826              	.L118:
 795:Drivers/BluetoothComm/BluetoothClassicComm.c **** 	{
 796:Drivers/BluetoothComm/BluetoothClassicComm.c **** 		retVal = true;
 1827              		.loc 1 796 10 view .LVU496
 1828 000c 0120     		movs	r0, #1
 1829              	.LVL130:
 797:Drivers/BluetoothComm/BluetoothClassicComm.c **** 	}
 798:Drivers/BluetoothComm/BluetoothClassicComm.c **** 	return retVal;
 1830              		.loc 1 798 2 is_stmt 1 view .LVU497
 799:Drivers/BluetoothComm/BluetoothClassicComm.c **** }
 1831              		.loc 1 799 1 is_stmt 0 view .LVU498
 1832 000e 7047     		bx	lr
 1833              	.L120:
 1834              		.align	2
 1835              	.L119:
 1836 0010 00000000 		.word	.LANCHOR23
 1837              		.cfi_endproc
 1838              	.LFE151:
 1840              		.section	.text.BLU_DbgMsgTransmit,"ax",%progbits
 1841              		.align	1
 1842              		.global	BLU_DbgMsgTransmit
 1843              		.syntax unified
ARM GAS  C:\Users\Teodor\AppData\Local\Temp\cczmnjKd.s 			page 52


 1844              		.thumb
 1845              		.thumb_func
 1847              	BLU_DbgMsgTransmit:
 1848              	.LVL131:
 1849              	.LFB152:
 800:Drivers/BluetoothComm/BluetoothClassicComm.c **** 
 801:Drivers/BluetoothComm/BluetoothClassicComm.c **** 
 802:Drivers/BluetoothComm/BluetoothClassicComm.c **** void BLU_DbgMsgTransmit(char *DbgString, ...)
 803:Drivers/BluetoothComm/BluetoothClassicComm.c **** {
 1850              		.loc 1 803 1 is_stmt 1 view -0
 1851              		.cfi_startproc
 1852              		@ args = 4, pretend = 16, frame = 264
 1853              		@ frame_needed = 0, uses_anonymous_args = 1
 1854              		.loc 1 803 1 is_stmt 0 view .LVU500
 1855 0000 0FB4     		push	{r0, r1, r2, r3}
 1856              	.LCFI25:
 1857              		.cfi_def_cfa_offset 16
 1858              		.cfi_offset 0, -16
 1859              		.cfi_offset 1, -12
 1860              		.cfi_offset 2, -8
 1861              		.cfi_offset 3, -4
 1862 0002 70B5     		push	{r4, r5, r6, lr}
 1863              	.LCFI26:
 1864              		.cfi_def_cfa_offset 32
 1865              		.cfi_offset 4, -32
 1866              		.cfi_offset 5, -28
 1867              		.cfi_offset 6, -24
 1868              		.cfi_offset 14, -20
 1869 0004 C2B0     		sub	sp, sp, #264
 1870              	.LCFI27:
 1871              		.cfi_def_cfa_offset 296
 1872 0006 46AC     		add	r4, sp, #280
 1873 0008 54F8046B 		ldr	r6, [r4], #4
 804:Drivers/BluetoothComm/BluetoothClassicComm.c **** 	static uint8_t SyncId = 0;
 1874              		.loc 1 804 2 is_stmt 1 view .LVU501
 805:Drivers/BluetoothComm/BluetoothClassicComm.c **** 	uint32_t ucTimeStamp = HAL_GetTick();
 1875              		.loc 1 805 2 view .LVU502
 1876              		.loc 1 805 25 is_stmt 0 view .LVU503
 1877 000c FFF7FEFF 		bl	HAL_GetTick
 1878              	.LVL132:
 1879 0010 0546     		mov	r5, r0
 1880              	.LVL133:
 806:Drivers/BluetoothComm/BluetoothClassicComm.c **** 	char DebugMessageBufferHelper[255] = {'B'};
 1881              		.loc 1 806 2 is_stmt 1 view .LVU504
 1882              		.loc 1 806 7 is_stmt 0 view .LVU505
 1883 0012 4223     		movs	r3, #66
 1884 0014 0293     		str	r3, [sp, #8]
 1885 0016 FB22     		movs	r2, #251
 1886 0018 0021     		movs	r1, #0
 1887 001a 03A8     		add	r0, sp, #12
 1888 001c FFF7FEFF 		bl	memset
 1889              	.LVL134:
 807:Drivers/BluetoothComm/BluetoothClassicComm.c **** 
 808:Drivers/BluetoothComm/BluetoothClassicComm.c **** 	va_list ap;
 1890              		.loc 1 808 2 is_stmt 1 view .LVU506
 809:Drivers/BluetoothComm/BluetoothClassicComm.c **** 	va_start(ap, DbgString);
 1891              		.loc 1 809 2 view .LVU507
ARM GAS  C:\Users\Teodor\AppData\Local\Temp\cczmnjKd.s 			page 53


 1892 0020 0194     		str	r4, [sp, #4]
 810:Drivers/BluetoothComm/BluetoothClassicComm.c **** 	uint16_t Size = vsprintf(&DebugMessageBufferHelper[6],DbgString,ap);
 1893              		.loc 1 810 2 view .LVU508
 1894              		.loc 1 810 18 is_stmt 0 view .LVU509
 1895 0022 2246     		mov	r2, r4
 1896 0024 3146     		mov	r1, r6
 1897 0026 0DF10E00 		add	r0, sp, #14
 1898 002a FFF7FEFF 		bl	vsprintf
 1899              	.LVL135:
 811:Drivers/BluetoothComm/BluetoothClassicComm.c **** 	va_end(ap);
 1900              		.loc 1 811 2 is_stmt 1 view .LVU510
 812:Drivers/BluetoothComm/BluetoothClassicComm.c **** 
 813:Drivers/BluetoothComm/BluetoothClassicComm.c **** 	Size = Size + 6;
 1901              		.loc 1 813 2 view .LVU511
 814:Drivers/BluetoothComm/BluetoothClassicComm.c **** 	DebugMessageBufferHelper[0] = BLU_DebugMessage;
 1902              		.loc 1 814 2 view .LVU512
 1903              		.loc 1 814 30 is_stmt 0 view .LVU513
 1904 002e 0223     		movs	r3, #2
 1905 0030 8DF80830 		strb	r3, [sp, #8]
 815:Drivers/BluetoothComm/BluetoothClassicComm.c **** 	DebugMessageBufferHelper[1] = SyncId;
 1906              		.loc 1 815 2 is_stmt 1 view .LVU514
 1907              		.loc 1 815 30 is_stmt 0 view .LVU515
 1908 0034 0B4B     		ldr	r3, .L124
 1909 0036 1B78     		ldrb	r3, [r3]	@ zero_extendqisi2
 1910 0038 8DF80930 		strb	r3, [sp, #9]
 816:Drivers/BluetoothComm/BluetoothClassicComm.c **** 	memcpy(&DebugMessageBufferHelper[2],(uint8_t *)&ucTimeStamp,4);
 1911              		.loc 1 816 2 is_stmt 1 view .LVU516
 1912 003c CDF80A50 		str	r5, [sp, #10]	@ unaligned
 817:Drivers/BluetoothComm/BluetoothClassicComm.c **** 
 818:Drivers/BluetoothComm/BluetoothClassicComm.c **** 	if(RB_Transmit_Write(&BluMainTransmitRingBuffer, (uint8_t *)DebugMessageBufferHelper, BLU_SINGLE_M
 1913              		.loc 1 818 2 view .LVU517
 1914              		.loc 1 818 5 is_stmt 0 view .LVU518
 1915 0040 6422     		movs	r2, #100
 1916 0042 02A9     		add	r1, sp, #8
 1917 0044 0848     		ldr	r0, .L124+4
 1918 0046 FFF7FEFF 		bl	RB_Transmit_Write
 1919              	.LVL136:
 1920              		.loc 1 818 4 view .LVU519
 1921 004a 10B1     		cbz	r0, .L122
 819:Drivers/BluetoothComm/BluetoothClassicComm.c **** 	{
 820:Drivers/BluetoothComm/BluetoothClassicComm.c **** 		LogDroppedFlag = true;
 1922              		.loc 1 820 3 is_stmt 1 view .LVU520
 1923              		.loc 1 820 18 is_stmt 0 view .LVU521
 1924 004c 074B     		ldr	r3, .L124+8
 1925 004e 0122     		movs	r2, #1
 1926 0050 1A70     		strb	r2, [r3]
 1927              	.L122:
 821:Drivers/BluetoothComm/BluetoothClassicComm.c **** 	}
 822:Drivers/BluetoothComm/BluetoothClassicComm.c **** 
 823:Drivers/BluetoothComm/BluetoothClassicComm.c **** 	SyncId++;;
 1928              		.loc 1 823 2 is_stmt 1 view .LVU522
 1929              		.loc 1 823 8 is_stmt 0 view .LVU523
 1930 0052 044A     		ldr	r2, .L124
 1931 0054 1378     		ldrb	r3, [r2]	@ zero_extendqisi2
 1932 0056 0133     		adds	r3, r3, #1
 1933 0058 1370     		strb	r3, [r2]
 1934              		.loc 1 823 11 is_stmt 1 view .LVU524
ARM GAS  C:\Users\Teodor\AppData\Local\Temp\cczmnjKd.s 			page 54


 824:Drivers/BluetoothComm/BluetoothClassicComm.c **** }
 1935              		.loc 1 824 1 is_stmt 0 view .LVU525
 1936 005a 42B0     		add	sp, sp, #264
 1937              	.LCFI28:
 1938              		.cfi_def_cfa_offset 32
 1939              		@ sp needed
 1940 005c BDE87040 		pop	{r4, r5, r6, lr}
 1941              	.LCFI29:
 1942              		.cfi_restore 14
 1943              		.cfi_restore 6
 1944              		.cfi_restore 5
 1945              		.cfi_restore 4
 1946              		.cfi_def_cfa_offset 16
 1947              	.LVL137:
 1948              		.loc 1 824 1 view .LVU526
 1949 0060 04B0     		add	sp, sp, #16
 1950              	.LCFI30:
 1951              		.cfi_restore 3
 1952              		.cfi_restore 2
 1953              		.cfi_restore 1
 1954              		.cfi_restore 0
 1955              		.cfi_def_cfa_offset 0
 1956 0062 7047     		bx	lr
 1957              	.L125:
 1958              		.align	2
 1959              	.L124:
 1960 0064 00000000 		.word	.LANCHOR24
 1961 0068 00000000 		.word	.LANCHOR5
 1962 006c 00000000 		.word	.LANCHOR6
 1963              		.cfi_endproc
 1964              	.LFE152:
 1966              		.section	.rodata.ReceiveDataHandler.str1.4,"aMS",%progbits,1
 1967              		.align	2
 1968              	.LC0:
 1969 0000 4C696E65 		.ascii	"LineFollower start!\000"
 1969      466F6C6C 
 1969      6F776572 
 1969      20737461 
 1969      72742100 
 1970              		.align	2
 1971              	.LC1:
 1972 0014 4C696E65 		.ascii	"LineFollower stop\000"
 1972      466F6C6C 
 1972      6F776572 
 1972      2073746F 
 1972      7000
 1973 0026 0000     		.align	2
 1974              	.LC2:
 1975 0028 53696D75 		.ascii	"Simulator data start\000"
 1975      6C61746F 
 1975      72206461 
 1975      74612073 
 1975      74617274 
 1976 003d 000000   		.align	2
 1977              	.LC3:
 1978 0040 54727565 		.ascii	"True data logger start\000"
 1978      20646174 
ARM GAS  C:\Users\Teodor\AppData\Local\Temp\cczmnjKd.s 			page 55


 1978      61206C6F 
 1978      67676572 
 1978      20737461 
 1979 0057 00       		.align	2
 1980              	.LC4:
 1981 0058 4C6F6767 		.ascii	"Logger stop\000"
 1981      65722073 
 1981      746F7000 
 1982              		.align	2
 1983              	.LC5:
 1984 0064 424C5520 		.ascii	"BLU RecHandlrErr-why defult?? |FrId:%d\000"
 1984      52656348 
 1984      616E646C 
 1984      72457272 
 1984      2D776879 
 1985 008b 00       		.align	2
 1986              	.LC6:
 1987 008c 4E766D20 		.ascii	"Nvm Data updated and commited\000"
 1987      44617461 
 1987      20757064 
 1987      61746564 
 1987      20616E64 
 1988              		.section	.text.ReceiveDataHandler,"ax",%progbits
 1989              		.align	1
 1990              		.syntax unified
 1991              		.thumb
 1992              		.thumb_func
 1994              	ReceiveDataHandler:
 1995              	.LFB143:
 502:Drivers/BluetoothComm/BluetoothClassicComm.c **** 	static uint32_t LastReadRingBufferTime = 0U;
 1996              		.loc 1 502 1 is_stmt 1 view -0
 1997              		.cfi_startproc
 1998              		@ args = 0, pretend = 0, frame = 8
 1999              		@ frame_needed = 0, uses_anonymous_args = 0
 2000 0000 10B5     		push	{r4, lr}
 2001              	.LCFI31:
 2002              		.cfi_def_cfa_offset 8
 2003              		.cfi_offset 4, -8
 2004              		.cfi_offset 14, -4
 2005 0002 82B0     		sub	sp, sp, #8
 2006              	.LCFI32:
 2007              		.cfi_def_cfa_offset 16
 503:Drivers/BluetoothComm/BluetoothClassicComm.c **** 	static bool NvmDataUpdatedFlag = false;
 2008              		.loc 1 503 2 view .LVU528
 504:Drivers/BluetoothComm/BluetoothClassicComm.c **** 
 2009              		.loc 1 504 2 view .LVU529
 506:Drivers/BluetoothComm/BluetoothClassicComm.c **** 	uint8_t MessageToReadSize= 0U;
 2010              		.loc 1 506 2 view .LVU530
 506:Drivers/BluetoothComm/BluetoothClassicComm.c **** 	uint8_t MessageToReadSize= 0U;
 2011              		.loc 1 506 11 is_stmt 0 view .LVU531
 2012 0004 0023     		movs	r3, #0
 2013 0006 0193     		str	r3, [sp, #4]
 507:Drivers/BluetoothComm/BluetoothClassicComm.c **** 
 2014              		.loc 1 507 2 is_stmt 1 view .LVU532
 507:Drivers/BluetoothComm/BluetoothClassicComm.c **** 
 2015              		.loc 1 507 10 is_stmt 0 view .LVU533
 2016 0008 8DF80330 		strb	r3, [sp, #3]
ARM GAS  C:\Users\Teodor\AppData\Local\Temp\cczmnjKd.s 			page 56


 511:Drivers/BluetoothComm/BluetoothClassicComm.c **** 		{
 2017              		.loc 1 511 3 is_stmt 1 view .LVU534
 511:Drivers/BluetoothComm/BluetoothClassicComm.c **** 		{
 2018              		.loc 1 511 6 is_stmt 0 view .LVU535
 2019 000c 01AA     		add	r2, sp, #4
 2020 000e 0DF10301 		add	r1, sp, #3
 2021 0012 5048     		ldr	r0, .L149
 2022 0014 FFF7FEFF 		bl	RB_Receive_Read
 2023              	.LVL138:
 511:Drivers/BluetoothComm/BluetoothClassicComm.c **** 		{
 2024              		.loc 1 511 5 view .LVU536
 2025 0018 28B1     		cbz	r0, .L146
 2026              	.L127:
 651:Drivers/BluetoothComm/BluetoothClassicComm.c **** 		{
 2027              		.loc 1 651 3 is_stmt 1 view .LVU537
 651:Drivers/BluetoothComm/BluetoothClassicComm.c **** 		{
 2028              		.loc 1 651 27 is_stmt 0 view .LVU538
 2029 001a 4F4B     		ldr	r3, .L149+4
 2030 001c 1B78     		ldrb	r3, [r3]	@ zero_extendqisi2
 651:Drivers/BluetoothComm/BluetoothClassicComm.c **** 		{
 2031              		.loc 1 651 5 view .LVU539
 2032 001e 002B     		cmp	r3, #0
 2033 0020 7ED1     		bne	.L147
 2034              	.L126:
 669:Drivers/BluetoothComm/BluetoothClassicComm.c **** 
 2035              		.loc 1 669 1 view .LVU540
 2036 0022 02B0     		add	sp, sp, #8
 2037              	.LCFI33:
 2038              		.cfi_remember_state
 2039              		.cfi_def_cfa_offset 8
 2040              		@ sp needed
 2041 0024 10BD     		pop	{r4, pc}
 2042              	.L146:
 2043              	.LCFI34:
 2044              		.cfi_restore_state
 2045              	.LBB11:
 514:Drivers/BluetoothComm/BluetoothClassicComm.c **** 			BLU_MessageID_t ReceivedMessageId = ReceivedMessageBuff[0];
 2046              		.loc 1 514 4 is_stmt 1 view .LVU541
 514:Drivers/BluetoothComm/BluetoothClassicComm.c **** 			BLU_MessageID_t ReceivedMessageId = ReceivedMessageBuff[0];
 2047              		.loc 1 514 13 is_stmt 0 view .LVU542
 2048 0026 019B     		ldr	r3, [sp, #4]
 2049              	.LVL139:
 515:Drivers/BluetoothComm/BluetoothClassicComm.c **** 
 2050              		.loc 1 515 4 is_stmt 1 view .LVU543
 515:Drivers/BluetoothComm/BluetoothClassicComm.c **** 
 2051              		.loc 1 515 20 is_stmt 0 view .LVU544
 2052 0028 1C78     		ldrb	r4, [r3]	@ zero_extendqisi2
 2053              	.LVL140:
 517:Drivers/BluetoothComm/BluetoothClassicComm.c **** 
 2054              		.loc 1 517 4 is_stmt 1 view .LVU545
 517:Drivers/BluetoothComm/BluetoothClassicComm.c **** 
 2055              		.loc 1 517 29 is_stmt 0 view .LVU546
 2056 002a FFF7FEFF 		bl	HAL_GetTick
 2057              	.LVL141:
 517:Drivers/BluetoothComm/BluetoothClassicComm.c **** 
 2058              		.loc 1 517 27 view .LVU547
 2059 002e 4B4B     		ldr	r3, .L149+8
ARM GAS  C:\Users\Teodor\AppData\Local\Temp\cczmnjKd.s 			page 57


 2060 0030 1860     		str	r0, [r3]
 519:Drivers/BluetoothComm/BluetoothClassicComm.c **** 			{
 2061              		.loc 1 519 4 is_stmt 1 view .LVU548
 2062 0032 E31E     		subs	r3, r4, #3
 2063 0034 142B     		cmp	r3, #20
 2064 0036 6CD8     		bhi	.L128
 2065 0038 01A2     		adr	r2, .L129
 2066 003a 52F823F0 		ldr	pc, [r2, r3, lsl #2]
 2067 003e 00BF     		.p2align 2
 2068              	.L129:
 2069 0040 AD000000 		.word	.L140+1
 2070 0044 BF000000 		.word	.L139+1
 2071 0048 D1000000 		.word	.L138+1
 2072 004c DF000000 		.word	.L137+1
 2073 0050 ED000000 		.word	.L136+1
 2074 0054 13010000 		.word	.L128+1
 2075 0058 13010000 		.word	.L128+1
 2076 005c 1B000000 		.word	.L127+1
 2077 0060 95000000 		.word	.L135+1
 2078 0064 1B000000 		.word	.L127+1
 2079 0068 9D000000 		.word	.L134+1
 2080 006c 1B000000 		.word	.L127+1
 2081 0070 A5000000 		.word	.L133+1
 2082 0074 1B000000 		.word	.L127+1
 2083 0078 FB000000 		.word	.L132+1
 2084 007c 1B000000 		.word	.L127+1
 2085 0080 03010000 		.word	.L131+1
 2086 0084 1B000000 		.word	.L127+1
 2087 0088 0B010000 		.word	.L130+1
 2088 008c 1B000000 		.word	.L127+1
 2089 0090 1B000000 		.word	.L127+1
 2090              		.p2align 1
 2091              	.L135:
 523:Drivers/BluetoothComm/BluetoothClassicComm.c **** 					break;
 2092              		.loc 1 523 6 view .LVU549
 523:Drivers/BluetoothComm/BluetoothClassicComm.c **** 					break;
 2093              		.loc 1 523 24 is_stmt 0 view .LVU550
 2094 0094 304B     		ldr	r3, .L149+4
 2095 0096 0122     		movs	r2, #1
 2096 0098 1A70     		strb	r2, [r3]
 524:Drivers/BluetoothComm/BluetoothClassicComm.c **** 				}
 2097              		.loc 1 524 6 is_stmt 1 view .LVU551
 2098 009a BEE7     		b	.L127
 2099              	.L134:
 539:Drivers/BluetoothComm/BluetoothClassicComm.c **** 					break;
 2100              		.loc 1 539 6 view .LVU552
 539:Drivers/BluetoothComm/BluetoothClassicComm.c **** 					break;
 2101              		.loc 1 539 24 is_stmt 0 view .LVU553
 2102 009c 2E4B     		ldr	r3, .L149+4
 2103 009e 0122     		movs	r2, #1
 2104 00a0 1A70     		strb	r2, [r3]
 540:Drivers/BluetoothComm/BluetoothClassicComm.c **** 				}
 2105              		.loc 1 540 6 is_stmt 1 view .LVU554
 2106 00a2 BAE7     		b	.L127
 2107              	.L133:
 551:Drivers/BluetoothComm/BluetoothClassicComm.c **** 					// BLU_DbgMsgTransmit("Received BaseMotSpd: %f, LedSt %d, EndLMark %d",
 2108              		.loc 1 551 6 view .LVU555
ARM GAS  C:\Users\Teodor\AppData\Local\Temp\cczmnjKd.s 			page 58


 551:Drivers/BluetoothComm/BluetoothClassicComm.c **** 					// BLU_DbgMsgTransmit("Received BaseMotSpd: %f, LedSt %d, EndLMark %d",
 2109              		.loc 1 551 24 is_stmt 0 view .LVU556
 2110 00a4 2C4B     		ldr	r3, .L149+4
 2111 00a6 0122     		movs	r2, #1
 2112 00a8 1A70     		strb	r2, [r3]
 555:Drivers/BluetoothComm/BluetoothClassicComm.c **** 				}
 2113              		.loc 1 555 6 is_stmt 1 view .LVU557
 2114 00aa B6E7     		b	.L127
 2115              	.L140:
 560:Drivers/BluetoothComm/BluetoothClassicComm.c **** 					LoggingState = TrueDataLogging;
 2116              		.loc 1 560 6 view .LVU558
 560:Drivers/BluetoothComm/BluetoothClassicComm.c **** 					LoggingState = TrueDataLogging;
 2117              		.loc 1 560 25 is_stmt 0 view .LVU559
 2118 00ac 0123     		movs	r3, #1
 2119 00ae 2C4A     		ldr	r2, .L149+12
 2120 00b0 1370     		strb	r3, [r2]
 561:Drivers/BluetoothComm/BluetoothClassicComm.c **** 					BLU_DbgMsgTransmit("LineFollower start!");
 2121              		.loc 1 561 6 is_stmt 1 view .LVU560
 561:Drivers/BluetoothComm/BluetoothClassicComm.c **** 					BLU_DbgMsgTransmit("LineFollower start!");
 2122              		.loc 1 561 19 is_stmt 0 view .LVU561
 2123 00b2 2C4A     		ldr	r2, .L149+16
 2124 00b4 1370     		strb	r3, [r2]
 562:Drivers/BluetoothComm/BluetoothClassicComm.c **** 					break;
 2125              		.loc 1 562 6 is_stmt 1 view .LVU562
 2126 00b6 2C48     		ldr	r0, .L149+20
 2127 00b8 FFF7FEFF 		bl	BLU_DbgMsgTransmit
 2128              	.LVL142:
 563:Drivers/BluetoothComm/BluetoothClassicComm.c **** 				}
 2129              		.loc 1 563 6 view .LVU563
 2130 00bc ADE7     		b	.L127
 2131              	.L139:
 567:Drivers/BluetoothComm/BluetoothClassicComm.c **** 					LoggingState = Suspended;
 2132              		.loc 1 567 6 view .LVU564
 567:Drivers/BluetoothComm/BluetoothClassicComm.c **** 					LoggingState = Suspended;
 2133              		.loc 1 567 25 is_stmt 0 view .LVU565
 2134 00be 0023     		movs	r3, #0
 2135 00c0 274A     		ldr	r2, .L149+12
 2136 00c2 1370     		strb	r3, [r2]
 568:Drivers/BluetoothComm/BluetoothClassicComm.c **** 					BLU_DbgMsgTransmit("LineFollower stop");
 2137              		.loc 1 568 6 is_stmt 1 view .LVU566
 568:Drivers/BluetoothComm/BluetoothClassicComm.c **** 					BLU_DbgMsgTransmit("LineFollower stop");
 2138              		.loc 1 568 19 is_stmt 0 view .LVU567
 2139 00c4 274A     		ldr	r2, .L149+16
 2140 00c6 1370     		strb	r3, [r2]
 569:Drivers/BluetoothComm/BluetoothClassicComm.c **** 					break;
 2141              		.loc 1 569 6 is_stmt 1 view .LVU568
 2142 00c8 2848     		ldr	r0, .L149+24
 2143 00ca FFF7FEFF 		bl	BLU_DbgMsgTransmit
 2144              	.LVL143:
 570:Drivers/BluetoothComm/BluetoothClassicComm.c **** 				}
 2145              		.loc 1 570 6 view .LVU569
 2146 00ce A4E7     		b	.L127
 2147              	.L138:
 575:Drivers/BluetoothComm/BluetoothClassicComm.c **** 					BLU_DbgMsgTransmit("Simulator data start");
 2148              		.loc 1 575 6 view .LVU570
 575:Drivers/BluetoothComm/BluetoothClassicComm.c **** 					BLU_DbgMsgTransmit("Simulator data start");
 2149              		.loc 1 575 19 is_stmt 0 view .LVU571
ARM GAS  C:\Users\Teodor\AppData\Local\Temp\cczmnjKd.s 			page 59


 2150 00d0 244B     		ldr	r3, .L149+16
 2151 00d2 0222     		movs	r2, #2
 2152 00d4 1A70     		strb	r2, [r3]
 576:Drivers/BluetoothComm/BluetoothClassicComm.c **** 					break;
 2153              		.loc 1 576 6 is_stmt 1 view .LVU572
 2154 00d6 2648     		ldr	r0, .L149+28
 2155 00d8 FFF7FEFF 		bl	BLU_DbgMsgTransmit
 2156              	.LVL144:
 577:Drivers/BluetoothComm/BluetoothClassicComm.c **** 				}
 2157              		.loc 1 577 6 view .LVU573
 2158 00dc 9DE7     		b	.L127
 2159              	.L137:
 582:Drivers/BluetoothComm/BluetoothClassicComm.c **** 					BLU_DbgMsgTransmit("True data logger start");
 2160              		.loc 1 582 6 view .LVU574
 582:Drivers/BluetoothComm/BluetoothClassicComm.c **** 					BLU_DbgMsgTransmit("True data logger start");
 2161              		.loc 1 582 19 is_stmt 0 view .LVU575
 2162 00de 214B     		ldr	r3, .L149+16
 2163 00e0 0122     		movs	r2, #1
 2164 00e2 1A70     		strb	r2, [r3]
 583:Drivers/BluetoothComm/BluetoothClassicComm.c **** 					break;
 2165              		.loc 1 583 6 is_stmt 1 view .LVU576
 2166 00e4 2348     		ldr	r0, .L149+32
 2167 00e6 FFF7FEFF 		bl	BLU_DbgMsgTransmit
 2168              	.LVL145:
 584:Drivers/BluetoothComm/BluetoothClassicComm.c **** 				}
 2169              		.loc 1 584 6 view .LVU577
 2170 00ea 96E7     		b	.L127
 2171              	.L136:
 589:Drivers/BluetoothComm/BluetoothClassicComm.c **** 					BLU_DbgMsgTransmit("Logger stop");
 2172              		.loc 1 589 6 view .LVU578
 589:Drivers/BluetoothComm/BluetoothClassicComm.c **** 					BLU_DbgMsgTransmit("Logger stop");
 2173              		.loc 1 589 19 is_stmt 0 view .LVU579
 2174 00ec 1D4B     		ldr	r3, .L149+16
 2175 00ee 0022     		movs	r2, #0
 2176 00f0 1A70     		strb	r2, [r3]
 590:Drivers/BluetoothComm/BluetoothClassicComm.c **** 					break;
 2177              		.loc 1 590 6 is_stmt 1 view .LVU580
 2178 00f2 2148     		ldr	r0, .L149+36
 2179 00f4 FFF7FEFF 		bl	BLU_DbgMsgTransmit
 2180              	.LVL146:
 591:Drivers/BluetoothComm/BluetoothClassicComm.c **** 				}
 2181              		.loc 1 591 6 view .LVU581
 2182 00f8 8FE7     		b	.L127
 2183              	.L132:
 601:Drivers/BluetoothComm/BluetoothClassicComm.c **** 					break;
 2184              		.loc 1 601 6 view .LVU582
 601:Drivers/BluetoothComm/BluetoothClassicComm.c **** 					break;
 2185              		.loc 1 601 24 is_stmt 0 view .LVU583
 2186 00fa 174B     		ldr	r3, .L149+4
 2187 00fc 0122     		movs	r2, #1
 2188 00fe 1A70     		strb	r2, [r3]
 602:Drivers/BluetoothComm/BluetoothClassicComm.c **** 
 2189              		.loc 1 602 6 is_stmt 1 view .LVU584
 2190 0100 8BE7     		b	.L127
 2191              	.L131:
 612:Drivers/BluetoothComm/BluetoothClassicComm.c **** 					break;
 2192              		.loc 1 612 6 view .LVU585
ARM GAS  C:\Users\Teodor\AppData\Local\Temp\cczmnjKd.s 			page 60


 612:Drivers/BluetoothComm/BluetoothClassicComm.c **** 					break;
 2193              		.loc 1 612 24 is_stmt 0 view .LVU586
 2194 0102 154B     		ldr	r3, .L149+4
 2195 0104 0122     		movs	r2, #1
 2196 0106 1A70     		strb	r2, [r3]
 613:Drivers/BluetoothComm/BluetoothClassicComm.c **** 				}
 2197              		.loc 1 613 6 is_stmt 1 view .LVU587
 2198 0108 87E7     		b	.L127
 2199              	.L130:
 628:Drivers/BluetoothComm/BluetoothClassicComm.c **** 					break;
 2200              		.loc 1 628 6 view .LVU588
 628:Drivers/BluetoothComm/BluetoothClassicComm.c **** 					break;
 2201              		.loc 1 628 24 is_stmt 0 view .LVU589
 2202 010a 134B     		ldr	r3, .L149+4
 2203 010c 0122     		movs	r2, #1
 2204 010e 1A70     		strb	r2, [r3]
 629:Drivers/BluetoothComm/BluetoothClassicComm.c **** 				}
 2205              		.loc 1 629 6 is_stmt 1 view .LVU590
 2206 0110 83E7     		b	.L127
 2207              	.L128:
 639:Drivers/BluetoothComm/BluetoothClassicComm.c **** 					{
 2208              		.loc 1 639 6 view .LVU591
 639:Drivers/BluetoothComm/BluetoothClassicComm.c **** 					{
 2209              		.loc 1 639 8 is_stmt 0 view .LVU592
 2210 0112 002C     		cmp	r4, #0
 2211 0114 81D0     		beq	.L127
 641:Drivers/BluetoothComm/BluetoothClassicComm.c **** 					}
 2212              		.loc 1 641 7 is_stmt 1 view .LVU593
 2213 0116 2146     		mov	r1, r4
 2214 0118 1848     		ldr	r0, .L149+40
 2215 011a FFF7FEFF 		bl	BLU_DbgMsgTransmit
 2216              	.LVL147:
 2217 011e 7CE7     		b	.L127
 2218              	.LVL148:
 2219              	.L147:
 641:Drivers/BluetoothComm/BluetoothClassicComm.c **** 					}
 2220              		.loc 1 641 7 is_stmt 0 view .LVU594
 2221              	.LBE11:
 651:Drivers/BluetoothComm/BluetoothClassicComm.c **** 		{
 2222              		.loc 1 651 40 discriminator 1 view .LVU595
 2223 0120 FFF7FEFF 		bl	HAL_GetTick
 2224              	.LVL149:
 651:Drivers/BluetoothComm/BluetoothClassicComm.c **** 		{
 2225              		.loc 1 651 54 discriminator 1 view .LVU596
 2226 0124 0D4B     		ldr	r3, .L149+8
 2227 0126 1B68     		ldr	r3, [r3]
 2228 0128 C01A     		subs	r0, r0, r3
 651:Drivers/BluetoothComm/BluetoothClassicComm.c **** 		{
 2229              		.loc 1 651 36 discriminator 1 view .LVU597
 2230 012a 3228     		cmp	r0, #50
 2231 012c 7FF679AF 		bls	.L126
 653:Drivers/BluetoothComm/BluetoothClassicComm.c **** 
 2232              		.loc 1 653 4 is_stmt 1 view .LVU598
 653:Drivers/BluetoothComm/BluetoothClassicComm.c **** 
 2233              		.loc 1 653 23 is_stmt 0 view .LVU599
 2234 0130 0024     		movs	r4, #0
 2235 0132 094B     		ldr	r3, .L149+4
ARM GAS  C:\Users\Teodor\AppData\Local\Temp\cczmnjKd.s 			page 61


 2236 0134 1C70     		strb	r4, [r3]
 655:Drivers/BluetoothComm/BluetoothClassicComm.c **** 			{
 2237              		.loc 1 655 4 is_stmt 1 view .LVU600
 2238              	.LBB12:
 655:Drivers/BluetoothComm/BluetoothClassicComm.c **** 			{
 2239              		.loc 1 655 8 view .LVU601
 2240              	.LVL150:
 655:Drivers/BluetoothComm/BluetoothClassicComm.c **** 			{
 2241              		.loc 1 655 4 is_stmt 0 view .LVU602
 2242 0136 00E0     		b	.L142
 2243              	.LVL151:
 2244              	.L143:
 655:Drivers/BluetoothComm/BluetoothClassicComm.c **** 			{
 2245              		.loc 1 655 56 is_stmt 1 discriminator 2 view .LVU603
 655:Drivers/BluetoothComm/BluetoothClassicComm.c **** 			{
 2246              		.loc 1 655 57 is_stmt 0 discriminator 2 view .LVU604
 2247 0138 0134     		adds	r4, r4, #1
 2248              	.LVL152:
 2249              	.L142:
 655:Drivers/BluetoothComm/BluetoothClassicComm.c **** 			{
 2250              		.loc 1 655 17 is_stmt 1 discriminator 1 view .LVU605
 655:Drivers/BluetoothComm/BluetoothClassicComm.c **** 			{
 2251              		.loc 1 655 4 is_stmt 0 discriminator 1 view .LVU606
 2252 013a 0E2C     		cmp	r4, #14
 2253 013c 06DC     		bgt	.L148
 657:Drivers/BluetoothComm/BluetoothClassicComm.c **** 				{
 2254              		.loc 1 657 5 is_stmt 1 view .LVU607
 657:Drivers/BluetoothComm/BluetoothClassicComm.c **** 				{
 2255              		.loc 1 657 26 is_stmt 0 view .LVU608
 2256 013e 104B     		ldr	r3, .L149+44
 2257 0140 53F82430 		ldr	r3, [r3, r4, lsl #2]
 657:Drivers/BluetoothComm/BluetoothClassicComm.c **** 				{
 2258              		.loc 1 657 7 view .LVU609
 2259 0144 002B     		cmp	r3, #0
 2260 0146 F7D0     		beq	.L143
 659:Drivers/BluetoothComm/BluetoothClassicComm.c **** 				}
 2261              		.loc 1 659 6 is_stmt 1 view .LVU610
 2262 0148 9847     		blx	r3
 2263              	.LVL153:
 2264 014a F5E7     		b	.L143
 2265              	.L148:
 2266              	.LBE12:
 663:Drivers/BluetoothComm/BluetoothClassicComm.c **** 		}
 2267              		.loc 1 663 4 view .LVU611
 2268 014c 0D48     		ldr	r0, .L149+48
 2269 014e FFF7FEFF 		bl	BLU_DbgMsgTransmit
 2270              	.LVL154:
 669:Drivers/BluetoothComm/BluetoothClassicComm.c **** 
 2271              		.loc 1 669 1 is_stmt 0 view .LVU612
 2272 0152 66E7     		b	.L126
 2273              	.L150:
 2274              		.align	2
 2275              	.L149:
 2276 0154 00000000 		.word	.LANCHOR15
 2277 0158 00000000 		.word	.LANCHOR26
 2278 015c 00000000 		.word	.LANCHOR25
 2279 0160 00000000 		.word	.LANCHOR23
ARM GAS  C:\Users\Teodor\AppData\Local\Temp\cczmnjKd.s 			page 62


 2280 0164 00000000 		.word	.LANCHOR20
 2281 0168 00000000 		.word	.LC0
 2282 016c 14000000 		.word	.LC1
 2283 0170 28000000 		.word	.LC2
 2284 0174 40000000 		.word	.LC3
 2285 0178 58000000 		.word	.LC4
 2286 017c 64000000 		.word	.LC5
 2287 0180 00000000 		.word	.LANCHOR21
 2288 0184 8C000000 		.word	.LC6
 2289              		.cfi_endproc
 2290              	.LFE143:
 2292              		.section	.text.BLU_Task,"ax",%progbits
 2293              		.align	1
 2294              		.global	BLU_Task
 2295              		.syntax unified
 2296              		.thumb
 2297              		.thumb_func
 2299              	BLU_Task:
 2300              	.LFB146:
 757:Drivers/BluetoothComm/BluetoothClassicComm.c **** 	BaseDataReporterTask();
 2301              		.loc 1 757 1 is_stmt 1 view -0
 2302              		.cfi_startproc
 2303              		@ args = 0, pretend = 0, frame = 0
 2304              		@ frame_needed = 0, uses_anonymous_args = 0
 2305 0000 08B5     		push	{r3, lr}
 2306              	.LCFI35:
 2307              		.cfi_def_cfa_offset 8
 2308              		.cfi_offset 3, -8
 2309              		.cfi_offset 14, -4
 758:Drivers/BluetoothComm/BluetoothClassicComm.c **** 	ReceiveDataHandler();
 2310              		.loc 1 758 2 view .LVU614
 2311 0002 FFF7FEFF 		bl	BaseDataReporterTask
 2312              	.LVL155:
 759:Drivers/BluetoothComm/BluetoothClassicComm.c **** 	TransmitDataHandler();
 2313              		.loc 1 759 2 view .LVU615
 2314 0006 FFF7FEFF 		bl	ReceiveDataHandler
 2315              	.LVL156:
 760:Drivers/BluetoothComm/BluetoothClassicComm.c **** }
 2316              		.loc 1 760 2 view .LVU616
 2317 000a FFF7FEFF 		bl	TransmitDataHandler
 2318              	.LVL157:
 761:Drivers/BluetoothComm/BluetoothClassicComm.c **** 
 2319              		.loc 1 761 1 is_stmt 0 view .LVU617
 2320 000e 08BD     		pop	{r3, pc}
 2321              		.cfi_endproc
 2322              	.LFE146:
 2324              		.global	SimFakeXY_MapDat
 2325              		.section	.bss.BLU_StatisticTimer.4,"aw",%nobits
 2326              		.align	2
 2327              		.set	.LANCHOR11,. + 0
 2330              	BLU_StatisticTimer.4:
 2331 0000 00000000 		.space	4
 2332              		.section	.bss.BleMainReceiveRingBuffer,"aw",%nobits
 2333              		.align	2
 2334              		.set	.LANCHOR15,. + 0
 2337              	BleMainReceiveRingBuffer:
 2338 0000 00000000 		.space	204
ARM GAS  C:\Users\Teodor\AppData\Local\Temp\cczmnjKd.s 			page 63


 2338      00000000 
 2338      00000000 
 2338      00000000 
 2338      00000000 
 2339              		.section	.bss.BluMainReceiveMessagesTab,"aw",%nobits
 2340              		.align	2
 2343              	BluMainReceiveMessagesTab:
 2344 0000 00000000 		.space	10000
 2344      00000000 
 2344      00000000 
 2344      00000000 
 2344      00000000 
 2345              		.section	.bss.BluMainTransmitMessagesTab,"aw",%nobits
 2346              		.align	2
 2349              	BluMainTransmitMessagesTab:
 2350 0000 00000000 		.space	10000
 2350      00000000 
 2350      00000000 
 2350      00000000 
 2350      00000000 
 2351              		.section	.bss.BluMainTransmitRingBuffer,"aw",%nobits
 2352              		.align	2
 2353              		.set	.LANCHOR5,. + 0
 2356              	BluMainTransmitRingBuffer:
 2357 0000 00000000 		.space	104
 2357      00000000 
 2357      00000000 
 2357      00000000 
 2357      00000000 
 2358              		.section	.bss.DefaultBlindBuffer.13,"aw",%nobits
 2359              		.align	2
 2360              		.set	.LANCHOR0,. + 0
 2363              	DefaultBlindBuffer.13:
 2364 0000 00000000 		.space	20
 2364      00000000 
 2364      00000000 
 2364      00000000 
 2364      00000000 
 2365              		.section	.bss.ExtraShifter.9,"aw",%nobits
 2366              		.align	2
 2367              		.set	.LANCHOR2,. + 0
 2370              	ExtraShifter.9:
 2371 0000 00000000 		.space	4
 2372              		.section	.bss.InternalRobotState,"aw",%nobits
 2373              		.set	.LANCHOR23,. + 0
 2376              	InternalRobotState:
 2377 0000 00       		.space	1
 2378              		.section	.bss.LastReadRingBufferTime.6,"aw",%nobits
 2379              		.align	2
 2380              		.set	.LANCHOR25,. + 0
 2383              	LastReadRingBufferTime.6:
 2384 0000 00000000 		.space	4
 2385              		.section	.bss.LogDroppedFlag,"aw",%nobits
 2386              		.set	.LANCHOR6,. + 0
 2389              	LogDroppedFlag:
 2390 0000 00       		.space	1
 2391              		.section	.bss.LoggingState,"aw",%nobits
ARM GAS  C:\Users\Teodor\AppData\Local\Temp\cczmnjKd.s 			page 64


 2392              		.set	.LANCHOR20,. + 0
 2395              	LoggingState:
 2396 0000 00       		.space	1
 2397              		.section	.bss.MainRingBufferOverFlowCounter.2,"aw",%nobits
 2398              		.align	1
 2399              		.set	.LANCHOR8,. + 0
 2402              	MainRingBufferOverFlowCounter.2:
 2403 0000 0000     		.space	2
 2404              		.section	.bss.ManualCtrlRequestCallBackPointer,"aw",%nobits
 2405              		.align	2
 2406              		.set	.LANCHOR22,. + 0
 2409              	ManualCtrlRequestCallBackPointer:
 2410 0000 00000000 		.space	4
 2411              		.section	.bss.MessageReceiveBufferAddress.14,"aw",%nobits
 2412              		.align	2
 2413              		.set	.LANCHOR14,. + 0
 2416              	MessageReceiveBufferAddress.14:
 2417 0000 00000000 		.space	4
 2418              		.section	.bss.NewestLfDataReport,"aw",%nobits
 2419              		.align	2
 2420              		.set	.LANCHOR3,. + 0
 2423              	NewestLfDataReport:
 2424 0000 00000000 		.space	55
 2424      00000000 
 2424      00000000 
 2424      00000000 
 2424      00000000 
 2425              		.section	.bss.NvmDataUpdatedFlag.5,"aw",%nobits
 2426              		.set	.LANCHOR26,. + 0
 2429              	NvmDataUpdatedFlag.5:
 2430 0000 00       		.space	1
 2431              		.section	.bss.NvmUpdateCallBacks,"aw",%nobits
 2432              		.align	2
 2433              		.set	.LANCHOR21,. + 0
 2436              	NvmUpdateCallBacks:
 2437 0000 00000000 		.space	60
 2437      00000000 
 2437      00000000 
 2437      00000000 
 2437      00000000 
 2438              		.section	.bss.PreviousReportTransmitTime.8,"aw",%nobits
 2439              		.align	2
 2440              		.set	.LANCHOR19,. + 0
 2443              	PreviousReportTransmitTime.8:
 2444 0000 00000000 		.space	4
 2445              		.section	.bss.ProbeIterator.12,"aw",%nobits
 2446              		.align	1
 2447              		.set	.LANCHOR16,. + 0
 2450              	ProbeIterator.12:
 2451 0000 0000     		.space	2
 2452              		.section	.bss.Received50BytesAndHitIdleFlag,"aw",%nobits
 2453              		.set	.LANCHOR13,. + 0
 2456              	Received50BytesAndHitIdleFlag:
 2457 0000 00       		.space	1
 2458              		.section	.bss.RingBufferStatisticsHolder.3,"aw",%nobits
 2459              		.align	2
 2460              		.set	.LANCHOR7,. + 0
ARM GAS  C:\Users\Teodor\AppData\Local\Temp\cczmnjKd.s 			page 65


 2463              	RingBufferStatisticsHolder.3:
 2464 0000 00000000 		.space	100
 2464      00000000 
 2464      00000000 
 2464      00000000 
 2464      00000000 
 2465              		.section	.bss.SimFakeXY_MapDat,"aw",%nobits
 2466              		.align	2
 2467              		.set	.LANCHOR1,. + 0
 2470              	SimFakeXY_MapDat:
 2471 0000 00000000 		.space	3000
 2471      00000000 
 2471      00000000 
 2471      00000000 
 2471      00000000 
 2472              		.section	.bss.SyncId.0,"aw",%nobits
 2473              		.set	.LANCHOR24,. + 0
 2476              	SyncId.0:
 2477 0000 00       		.space	1
 2478              		.section	.bss.SyncIdStat.1,"aw",%nobits
 2479              		.set	.LANCHOR9,. + 0
 2482              	SyncIdStat.1:
 2483 0000 00       		.space	1
 2484              		.section	.bss.TransmisstedMessagesCounter,"aw",%nobits
 2485              		.align	1
 2486              		.set	.LANCHOR10,. + 0
 2489              	TransmisstedMessagesCounter:
 2490 0000 0000     		.space	2
 2491              		.section	.bss.UartBusyCounter,"aw",%nobits
 2492              		.align	1
 2493              		.set	.LANCHOR12,. + 0
 2496              	UartBusyCounter:
 2497 0000 0000     		.space	2
 2498              		.section	.bss.WaveHelper.10,"aw",%nobits
 2499              		.align	2
 2500              		.set	.LANCHOR18,. + 0
 2503              	WaveHelper.10:
 2504 0000 00000000 		.space	4
 2505              		.section	.bss._SyncID.7,"aw",%nobits
 2506              		.set	.LANCHOR4,. + 0
 2509              	_SyncID.7:
 2510 0000 00       		.space	1
 2511              		.section	.data.SyncIdIter.11,"aw"
 2512              		.set	.LANCHOR17,. + 0
 2515              	SyncIdIter.11:
 2516 0000 01       		.byte	1
 2517              		.text
 2518              	.Letext0:
 2519              		.file 2 "e:\\gnu_tools\\gnu arm embedded toolchain\\10 2021.10\\arm-none-eabi\\include\\machine\\_
 2520              		.file 3 "e:\\gnu_tools\\gnu arm embedded toolchain\\10 2021.10\\arm-none-eabi\\include\\sys\\_stdi
 2521              		.file 4 "e:\\gnu_tools\\gnu arm embedded toolchain\\10 2021.10\\lib\\gcc\\arm-none-eabi\\10.3.1\\i
 2522              		.file 5 "e:\\gnu_tools\\gnu arm embedded toolchain\\10 2021.10\\arm-none-eabi\\include\\stdio.h"
 2523              		.file 6 "Drivers/BluetoothComm/BluetoothClassicComm.h"
 2524              		.file 7 "Drivers/CMSIS/Device/ST/STM32F4xx/Include/stm32f401xc.h"
 2525              		.file 8 "Drivers/STM32F4xx_HAL_Driver/Inc/stm32f4xx_hal_def.h"
 2526              		.file 9 "Drivers/STM32F4xx_HAL_Driver/Inc/stm32f4xx_hal_dma.h"
 2527              		.file 10 "Drivers/STM32F4xx_HAL_Driver/Inc/stm32f4xx_hal_uart.h"
ARM GAS  C:\Users\Teodor\AppData\Local\Temp\cczmnjKd.s 			page 66


 2528              		.file 11 "Core/Inc/usart.h"
 2529              		.file 12 "Drivers/STM32F4xx_HAL_Driver/Inc/stm32f4xx_hal.h"
 2530              		.file 13 "e:\\gnu_tools\\gnu arm embedded toolchain\\10 2021.10\\arm-none-eabi\\include\\math.h"
 2531              		.file 14 "<built-in>"
ARM GAS  C:\Users\Teodor\AppData\Local\Temp\cczmnjKd.s 			page 67

