ARM GAS  C:\Users\Teodor\AppData\Local\Temp\ccQX8tYY.s 			page 1


   1              		.cpu cortex-m4
   2              		.arch armv7e-m
   3              		.fpu fpv4-sp-d16
   4              		.eabi_attribute 27, 1
   5              		.eabi_attribute 28, 1
   6              		.eabi_attribute 20, 1
   7              		.eabi_attribute 21, 1
   8              		.eabi_attribute 23, 3
   9              		.eabi_attribute 24, 1
  10              		.eabi_attribute 25, 1
  11              		.eabi_attribute 26, 1
  12              		.eabi_attribute 30, 1
  13              		.eabi_attribute 34, 1
  14              		.eabi_attribute 18, 4
  15              		.file	"mpu6050.c"
  16              		.text
  17              	.Ltext0:
  18              		.cfi_sections	.debug_frame
  19              		.section	.text.invSqrt,"ax",%progbits
  20              		.align	1
  21              		.syntax unified
  22              		.thumb
  23              		.thumb_func
  25              	invSqrt:
  26              	.LVL0:
  27              	.LFB131:
  28              		.file 1 "Drivers/Imu/mpu6050.c"
   1:Drivers/Imu/mpu6050.c **** #include "mpu6050.h"
   2:Drivers/Imu/mpu6050.c **** #include "math.h"
   3:Drivers/Imu/mpu6050.c **** 
   4:Drivers/Imu/mpu6050.c **** 
   5:Drivers/Imu/mpu6050.c **** /**
   6:Drivers/Imu/mpu6050.c ****  * *******************************************************************************************
   7:Drivers/Imu/mpu6050.c ****  * local defines
   8:Drivers/Imu/mpu6050.c ****  * *******************************************************************************************
   9:Drivers/Imu/mpu6050.c ****  * */
  10:Drivers/Imu/mpu6050.c **** 
  11:Drivers/Imu/mpu6050.c **** #define I2C_TIMEOUT 1000
  12:Drivers/Imu/mpu6050.c **** #define MPU_ERR_SAMPLING_COUNTER	10000// max: 65536
  13:Drivers/Imu/mpu6050.c **** 
  14:Drivers/Imu/mpu6050.c **** #define CONF_SAMPLE_FREQ 0.005F
  15:Drivers/Imu/mpu6050.c **** 
  16:Drivers/Imu/mpu6050.c **** #define acc     0
  17:Drivers/Imu/mpu6050.c **** #define gyro    1
  18:Drivers/Imu/mpu6050.c **** #define X       0
  19:Drivers/Imu/mpu6050.c **** #define Y       1
  20:Drivers/Imu/mpu6050.c **** #define Z       2
  21:Drivers/Imu/mpu6050.c **** 
  22:Drivers/Imu/mpu6050.c **** /**
  23:Drivers/Imu/mpu6050.c ****  * *******************************************************************************************
  24:Drivers/Imu/mpu6050.c ****  * local type defs
  25:Drivers/Imu/mpu6050.c ****  * *******************************************************************************************
  26:Drivers/Imu/mpu6050.c ****  * */
  27:Drivers/Imu/mpu6050.c **** 
  28:Drivers/Imu/mpu6050.c **** 
  29:Drivers/Imu/mpu6050.c **** /**
  30:Drivers/Imu/mpu6050.c ****  * *******************************************************************************************
ARM GAS  C:\Users\Teodor\AppData\Local\Temp\ccQX8tYY.s 			page 2


  31:Drivers/Imu/mpu6050.c ****  * Static variables 
  32:Drivers/Imu/mpu6050.c ****  * *******************************************************************************************
  33:Drivers/Imu/mpu6050.c ****  * */
  34:Drivers/Imu/mpu6050.c **** 
  35:Drivers/Imu/mpu6050.c **** const float mpuScale[] = {16384.0f, 131.072f}; // acc, gyro
  36:Drivers/Imu/mpu6050.c **** float mpuDataScaled[2][3];
  37:Drivers/Imu/mpu6050.c **** uint8_t mpu_buffer[14];
  38:Drivers/Imu/mpu6050.c **** I2C_HandleTypeDef *i2c;
  39:Drivers/Imu/mpu6050.c **** 
  40:Drivers/Imu/mpu6050.c **** /**
  41:Drivers/Imu/mpu6050.c ****  * *******************************************************************************************
  42:Drivers/Imu/mpu6050.c ****  * Static function prototypes 
  43:Drivers/Imu/mpu6050.c ****  * *******************************************************************************************
  44:Drivers/Imu/mpu6050.c ****  * */
  45:Drivers/Imu/mpu6050.c **** 
  46:Drivers/Imu/mpu6050.c **** static float invSqrt(float x);
  47:Drivers/Imu/mpu6050.c **** 
  48:Drivers/Imu/mpu6050.c **** static void Set_Calibrate_Gyro(uint8_t *data);
  49:Drivers/Imu/mpu6050.c **** 
  50:Drivers/Imu/mpu6050.c **** /**
  51:Drivers/Imu/mpu6050.c ****  * *******************************************************************************************
  52:Drivers/Imu/mpu6050.c ****  * static function implementation
  53:Drivers/Imu/mpu6050.c ****  * *******************************************************************************************
  54:Drivers/Imu/mpu6050.c ****  * */
  55:Drivers/Imu/mpu6050.c **** 
  56:Drivers/Imu/mpu6050.c **** /*!
  57:Drivers/Imu/mpu6050.c ****  ************************************************************************************************
  58:Drivers/Imu/mpu6050.c ****  * \brief GetEulerAngles_MadgwickFilter
  59:Drivers/Imu/mpu6050.c ****  * \details 
  60:Drivers/Imu/mpu6050.c ****  * \param in
  61:Drivers/Imu/mpu6050.c ****  * \param out
  62:Drivers/Imu/mpu6050.c ****  * \param out
  63:Drivers/Imu/mpu6050.c ****  * \param out
  64:Drivers/Imu/mpu6050.c ****  *
  65:Drivers/Imu/mpu6050.c ****  * */
  66:Drivers/Imu/mpu6050.c **** static void GetEulerAngles_MadgwickFilter(float *roll, float *pitch, float *yaw, const float invSam
  67:Drivers/Imu/mpu6050.c **** {
  68:Drivers/Imu/mpu6050.c **** 	static float q0 = 1.0f; //initialize quaternion for madgwick filter
  69:Drivers/Imu/mpu6050.c **** 	static float q1 = 0.0f;
  70:Drivers/Imu/mpu6050.c **** 	static float q2 = 0.0f;
  71:Drivers/Imu/mpu6050.c **** 	static float q3 = 0.0f;
  72:Drivers/Imu/mpu6050.c **** 	static float B_madgwick = 0.04;  //Madgwick filter parameter
  73:Drivers/Imu/mpu6050.c **** 
  74:Drivers/Imu/mpu6050.c **** 	//DESCRIPTION: Attitude estimation through sensor fusion - 6DOF
  75:Drivers/Imu/mpu6050.c **** 	/*
  76:Drivers/Imu/mpu6050.c **** 	* See description of Madgwick() for more information. This is a 6DOF implimentation for when magne
  77:Drivers/Imu/mpu6050.c **** 	* available (for example when using the recommended MPU6050 IMU for the default setup).
  78:Drivers/Imu/mpu6050.c **** 	*/
  79:Drivers/Imu/mpu6050.c **** 	float recipNorm;
  80:Drivers/Imu/mpu6050.c **** 	float s0, s1, s2, s3;
  81:Drivers/Imu/mpu6050.c **** 	float qDot1, qDot2, qDot3, qDot4;
  82:Drivers/Imu/mpu6050.c **** 	float _2q0, _2q1, _2q2, _2q3, _4q0, _4q1, _4q2 ,_8q1, _8q2, q0q0, q1q1, q2q2, q3q3;
  83:Drivers/Imu/mpu6050.c **** 
  84:Drivers/Imu/mpu6050.c **** 	//Convert gyroscope degrees/sec to radians/sec
  85:Drivers/Imu/mpu6050.c **** 	mpuDataScaled[gyro][X] *= 0.0174533f;
  86:Drivers/Imu/mpu6050.c **** 	mpuDataScaled[gyro][Y] *= 0.0174533f;
  87:Drivers/Imu/mpu6050.c **** 	mpuDataScaled[gyro][Z] *= 0.0174533f;
ARM GAS  C:\Users\Teodor\AppData\Local\Temp\ccQX8tYY.s 			page 3


  88:Drivers/Imu/mpu6050.c **** 
  89:Drivers/Imu/mpu6050.c **** 	//Rate of change of quaternion from gyroscope
  90:Drivers/Imu/mpu6050.c **** 	qDot1 = 0.5f * (-q1 * mpuDataScaled[gyro][X] - q2 * mpuDataScaled[gyro][Y] - q3 * mpuDataScaled[gy
  91:Drivers/Imu/mpu6050.c **** 	qDot2 = 0.5f * (q0 * mpuDataScaled[gyro][X] + q2 * mpuDataScaled[gyro][Z] - q3 * mpuDataScaled[gyr
  92:Drivers/Imu/mpu6050.c **** 	qDot3 = 0.5f * (q0 * mpuDataScaled[gyro][Y] - q1 * mpuDataScaled[gyro][Z] + q3 * mpuDataScaled[gyr
  93:Drivers/Imu/mpu6050.c **** 	qDot4 = 0.5f * (q0 * mpuDataScaled[gyro][Z] + q1 * mpuDataScaled[gyro][Y] - q2 * mpuDataScaled[gyr
  94:Drivers/Imu/mpu6050.c **** 
  95:Drivers/Imu/mpu6050.c **** 	//Compute feedback only if accelerometer measurement valid (avoids NaN in accelerometer normalisat
  96:Drivers/Imu/mpu6050.c **** 	if(!((mpuDataScaled[acc][X] == 0.0f) && (mpuDataScaled[acc][Y] == 0.0f) && (mpuDataScaled[acc][Z] 
  97:Drivers/Imu/mpu6050.c **** 		//Normalise accelerometer measurement
  98:Drivers/Imu/mpu6050.c **** 		recipNorm = invSqrt(mpuDataScaled[acc][X] * mpuDataScaled[acc][X] + mpuDataScaled[acc][Y] * mpuDa
  99:Drivers/Imu/mpu6050.c **** 		mpuDataScaled[acc][X] *= recipNorm;
 100:Drivers/Imu/mpu6050.c **** 		mpuDataScaled[acc][Y] *= recipNorm;
 101:Drivers/Imu/mpu6050.c **** 		mpuDataScaled[acc][Z] *= recipNorm;
 102:Drivers/Imu/mpu6050.c **** 
 103:Drivers/Imu/mpu6050.c **** 		//Auxiliary variables to avoid repeated arithmetic
 104:Drivers/Imu/mpu6050.c **** 		_2q0 = 2.0f * q0;
 105:Drivers/Imu/mpu6050.c **** 		_2q1 = 2.0f * q1;
 106:Drivers/Imu/mpu6050.c **** 		_2q2 = 2.0f * q2;
 107:Drivers/Imu/mpu6050.c **** 		_2q3 = 2.0f * q3;
 108:Drivers/Imu/mpu6050.c **** 		_4q0 = 4.0f * q0;
 109:Drivers/Imu/mpu6050.c **** 		_4q1 = 4.0f * q1;
 110:Drivers/Imu/mpu6050.c **** 		_4q2 = 4.0f * q2;
 111:Drivers/Imu/mpu6050.c **** 		_8q1 = 8.0f * q1;
 112:Drivers/Imu/mpu6050.c **** 		_8q2 = 8.0f * q2;
 113:Drivers/Imu/mpu6050.c **** 		q0q0 = q0 * q0;
 114:Drivers/Imu/mpu6050.c **** 		q1q1 = q1 * q1;
 115:Drivers/Imu/mpu6050.c **** 		q2q2 = q2 * q2;
 116:Drivers/Imu/mpu6050.c **** 		q3q3 = q3 * q3;
 117:Drivers/Imu/mpu6050.c **** 
 118:Drivers/Imu/mpu6050.c **** 		//Gradient decent algorithm corrective step
 119:Drivers/Imu/mpu6050.c **** 		s0 = _4q0 * q2q2 + _2q2 * mpuDataScaled[acc][X] + _4q0 * q1q1 - _2q1 * mpuDataScaled[acc][Y];
 120:Drivers/Imu/mpu6050.c **** 		s1 = _4q1 * q3q3 - _2q3 * mpuDataScaled[acc][X] + 4.0f * q0q0 * q1 - _2q0 * mpuDataScaled[acc][Y]
 121:Drivers/Imu/mpu6050.c **** 		s2 = 4.0f * q0q0 * q2 + _2q0 * mpuDataScaled[acc][X] + _4q2 * q3q3 - _2q3 * mpuDataScaled[acc][Y]
 122:Drivers/Imu/mpu6050.c **** 		s3 = 4.0f * q1q1 * q3 - _2q1 * mpuDataScaled[acc][X] + 4.0f * q2q2 * q3 - _2q2 * mpuDataScaled[ac
 123:Drivers/Imu/mpu6050.c **** 		recipNorm = invSqrt(s0 * s0 + s1 * s1 + s2 * s2 + s3 * s3); //normalise step magnitude
 124:Drivers/Imu/mpu6050.c **** 		s0 *= recipNorm;
 125:Drivers/Imu/mpu6050.c **** 		s1 *= recipNorm;
 126:Drivers/Imu/mpu6050.c **** 		s2 *= recipNorm;
 127:Drivers/Imu/mpu6050.c **** 		s3 *= recipNorm;
 128:Drivers/Imu/mpu6050.c **** 
 129:Drivers/Imu/mpu6050.c **** 		//Apply feedback step
 130:Drivers/Imu/mpu6050.c **** 		qDot1 -= B_madgwick * s0;
 131:Drivers/Imu/mpu6050.c **** 		qDot2 -= B_madgwick * s1;
 132:Drivers/Imu/mpu6050.c **** 		qDot3 -= B_madgwick * s2;
 133:Drivers/Imu/mpu6050.c **** 		qDot4 -= B_madgwick * s3;
 134:Drivers/Imu/mpu6050.c **** 	}
 135:Drivers/Imu/mpu6050.c **** 
 136:Drivers/Imu/mpu6050.c **** 	//Integrate rate of change of quaternion to yield quaternion
 137:Drivers/Imu/mpu6050.c **** 	q0 += qDot1 * invSampleFreq;
 138:Drivers/Imu/mpu6050.c **** 	q1 += qDot2 * invSampleFreq;
 139:Drivers/Imu/mpu6050.c **** 	q2 += qDot3 * invSampleFreq;
 140:Drivers/Imu/mpu6050.c **** 	q3 += qDot4 * invSampleFreq;
 141:Drivers/Imu/mpu6050.c **** 
 142:Drivers/Imu/mpu6050.c **** 	//Normalise quaternion
 143:Drivers/Imu/mpu6050.c **** 	recipNorm = invSqrt(q0 * q0 + q1 * q1 + q2 * q2 + q3 * q3);
 144:Drivers/Imu/mpu6050.c **** 	q0 *= recipNorm;
ARM GAS  C:\Users\Teodor\AppData\Local\Temp\ccQX8tYY.s 			page 4


 145:Drivers/Imu/mpu6050.c **** 	q1 *= recipNorm;
 146:Drivers/Imu/mpu6050.c **** 	q2 *= recipNorm;
 147:Drivers/Imu/mpu6050.c **** 	q3 *= recipNorm;
 148:Drivers/Imu/mpu6050.c **** 
 149:Drivers/Imu/mpu6050.c **** 	//compute angles
 150:Drivers/Imu/mpu6050.c **** 	*roll = atan2(q0*q1 + q2*q3, 0.5f - q1*q1 - q2*q2);
 151:Drivers/Imu/mpu6050.c **** 	*pitch = -asin(-2.0f * (q1*q3 - q0*q2));
 152:Drivers/Imu/mpu6050.c **** 	*yaw = -atan2(q1*q2 + q0*q3, 0.5f - q2*q2 - q3*q3);
 153:Drivers/Imu/mpu6050.c **** }
 154:Drivers/Imu/mpu6050.c **** 
 155:Drivers/Imu/mpu6050.c **** //Fast inverse sqrt for madgwick filter
 156:Drivers/Imu/mpu6050.c **** static float invSqrt(float x) {
  29              		.loc 1 156 31 view -0
  30              		.cfi_startproc
  31              		@ args = 0, pretend = 0, frame = 0
  32              		@ frame_needed = 0, uses_anonymous_args = 0
  33              		@ link register save eliminated.
 157:Drivers/Imu/mpu6050.c ****   unsigned int i = 0x5F1F1412 - (*(unsigned int*)&x >> 1);
  34              		.loc 1 157 3 view .LVU1
  35              		.loc 1 157 34 is_stmt 0 view .LVU2
  36 0000 10EE102A 		vmov	r2, s0	@ int
  37              	.LVL1:
 158:Drivers/Imu/mpu6050.c ****   float tmp = *(float*)&i;
  38              		.loc 1 158 3 is_stmt 1 view .LVU3
  39              		.loc 1 158 9 is_stmt 0 view .LVU4
  40 0004 094B     		ldr	r3, .L2
  41 0006 A3EB5203 		sub	r3, r3, r2, lsr #1
  42              	.LVL2:
  43              		.loc 1 158 9 view .LVU5
  44 000a 07EE103A 		vmov	s14, r3	@ int
  45              	.LVL3:
 159:Drivers/Imu/mpu6050.c ****   float y = tmp * (1.69000231f - 0.714158168f * x * tmp * tmp);
  46              		.loc 1 159 3 is_stmt 1 view .LVU6
  47              		.loc 1 159 47 is_stmt 0 view .LVU7
  48 000e DFED087A 		vldr.32	s15, .L2+4
  49 0012 60EE277A 		vmul.f32	s15, s0, s15
  50              		.loc 1 159 51 view .LVU8
  51 0016 67EE877A 		vmul.f32	s15, s15, s14
  52              		.loc 1 159 57 view .LVU9
  53 001a 67EE877A 		vmul.f32	s15, s15, s14
  54              		.loc 1 159 32 view .LVU10
  55 001e 9FED050A 		vldr.32	s0, .L2+8
  56              	.LVL4:
  57              		.loc 1 159 32 view .LVU11
  58 0022 30EE670A 		vsub.f32	s0, s0, s15
  59              	.LVL5:
 160:Drivers/Imu/mpu6050.c ****   return y;
  60              		.loc 1 160 3 is_stmt 1 view .LVU12
 161:Drivers/Imu/mpu6050.c **** }
  61              		.loc 1 161 1 is_stmt 0 view .LVU13
  62 0026 20EE070A 		vmul.f32	s0, s0, s14
  63              	.LVL6:
  64              		.loc 1 161 1 view .LVU14
  65 002a 7047     		bx	lr
  66              	.L3:
  67              		.align	2
  68              	.L2:
ARM GAS  C:\Users\Teodor\AppData\Local\Temp\ccQX8tYY.s 			page 5


  69 002c 12141F5F 		.word	1595872274
  70 0030 12D3363F 		.word	1060557586
  71 0034 FF51D83F 		.word	1071141375
  72              		.cfi_endproc
  73              	.LFE131:
  75              		.section	.text.Set_Calibrate_Gyro,"ax",%progbits
  76              		.align	1
  77              		.syntax unified
  78              		.thumb
  79              		.thumb_func
  81              	Set_Calibrate_Gyro:
  82              	.LVL7:
  83              	.LFB132:
 162:Drivers/Imu/mpu6050.c **** 
 163:Drivers/Imu/mpu6050.c **** static void Set_Calibrate_Gyro(uint8_t *data)
 164:Drivers/Imu/mpu6050.c **** {
  84              		.loc 1 164 1 is_stmt 1 view -0
  85              		.cfi_startproc
  86              		@ args = 0, pretend = 0, frame = 0
  87              		@ frame_needed = 0, uses_anonymous_args = 0
  88              		.loc 1 164 1 is_stmt 0 view .LVU16
  89 0000 00B5     		push	{lr}
  90              	.LCFI0:
  91              		.cfi_def_cfa_offset 4
  92              		.cfi_offset 14, -4
  93 0002 85B0     		sub	sp, sp, #20
  94              	.LCFI1:
  95              		.cfi_def_cfa_offset 24
 165:Drivers/Imu/mpu6050.c **** 	HAL_I2C_Mem_Write(i2c, MPU6050_ADDRESS, MPU6050_RA_XG_OFFS_USRH , 1, data, 6, I2C_TIMEOUT);
  96              		.loc 1 165 2 is_stmt 1 view .LVU17
  97 0004 4FF47A73 		mov	r3, #1000
  98 0008 0293     		str	r3, [sp, #8]
  99 000a 0623     		movs	r3, #6
 100 000c 0193     		str	r3, [sp, #4]
 101 000e 0090     		str	r0, [sp]
 102 0010 0123     		movs	r3, #1
 103 0012 1322     		movs	r2, #19
 104 0014 D221     		movs	r1, #210
 105 0016 0348     		ldr	r0, .L6
 106              	.LVL8:
 107              		.loc 1 165 2 is_stmt 0 view .LVU18
 108 0018 0068     		ldr	r0, [r0]
 109 001a FFF7FEFF 		bl	HAL_I2C_Mem_Write
 110              	.LVL9:
 166:Drivers/Imu/mpu6050.c **** }
 111              		.loc 1 166 1 view .LVU19
 112 001e 05B0     		add	sp, sp, #20
 113              	.LCFI2:
 114              		.cfi_def_cfa_offset 4
 115              		@ sp needed
 116 0020 5DF804FB 		ldr	pc, [sp], #4
 117              	.L7:
 118              		.align	2
 119              	.L6:
 120 0024 00000000 		.word	.LANCHOR0
 121              		.cfi_endproc
 122              	.LFE132:
ARM GAS  C:\Users\Teodor\AppData\Local\Temp\ccQX8tYY.s 			page 6


 124              		.global	__aeabi_f2d
 125              		.global	__aeabi_d2f
 126              		.section	.text.GetEulerAngles_MadgwickFilter,"ax",%progbits
 127              		.align	1
 128              		.syntax unified
 129              		.thumb
 130              		.thumb_func
 132              	GetEulerAngles_MadgwickFilter:
 133              	.LVL10:
 134              	.LFB130:
  67:Drivers/Imu/mpu6050.c **** 	static float q0 = 1.0f; //initialize quaternion for madgwick filter
 135              		.loc 1 67 1 is_stmt 1 view -0
 136              		.cfi_startproc
 137              		@ args = 0, pretend = 0, frame = 0
 138              		@ frame_needed = 0, uses_anonymous_args = 0
  67:Drivers/Imu/mpu6050.c **** 	static float q0 = 1.0f; //initialize quaternion for madgwick filter
 139              		.loc 1 67 1 is_stmt 0 view .LVU21
 140 0000 2DE9F047 		push	{r4, r5, r6, r7, r8, r9, r10, lr}
 141              	.LCFI3:
 142              		.cfi_def_cfa_offset 32
 143              		.cfi_offset 4, -32
 144              		.cfi_offset 5, -28
 145              		.cfi_offset 6, -24
 146              		.cfi_offset 7, -20
 147              		.cfi_offset 8, -16
 148              		.cfi_offset 9, -12
 149              		.cfi_offset 10, -8
 150              		.cfi_offset 14, -4
 151 0004 2DED0E8B 		vpush.64	{d8, d9, d10, d11, d12, d13, d14}
 152              	.LCFI4:
 153              		.cfi_def_cfa_offset 88
 154              		.cfi_offset 80, -88
 155              		.cfi_offset 81, -84
 156              		.cfi_offset 82, -80
 157              		.cfi_offset 83, -76
 158              		.cfi_offset 84, -72
 159              		.cfi_offset 85, -68
 160              		.cfi_offset 86, -64
 161              		.cfi_offset 87, -60
 162              		.cfi_offset 88, -56
 163              		.cfi_offset 89, -52
 164              		.cfi_offset 90, -48
 165              		.cfi_offset 91, -44
 166              		.cfi_offset 92, -40
 167              		.cfi_offset 93, -36
 168 0008 8146     		mov	r9, r0
 169 000a 8846     		mov	r8, r1
 170 000c 1746     		mov	r7, r2
 171 000e F0EE40CA 		vmov.f32	s25, s0
  68:Drivers/Imu/mpu6050.c **** 	static float q1 = 0.0f;
 172              		.loc 1 68 2 is_stmt 1 view .LVU22
  69:Drivers/Imu/mpu6050.c **** 	static float q2 = 0.0f;
 173              		.loc 1 69 2 view .LVU23
  70:Drivers/Imu/mpu6050.c **** 	static float q3 = 0.0f;
 174              		.loc 1 70 2 view .LVU24
  71:Drivers/Imu/mpu6050.c **** 	static float B_madgwick = 0.04;  //Madgwick filter parameter
 175              		.loc 1 71 2 view .LVU25
ARM GAS  C:\Users\Teodor\AppData\Local\Temp\ccQX8tYY.s 			page 7


  72:Drivers/Imu/mpu6050.c **** 
 176              		.loc 1 72 2 view .LVU26
  79:Drivers/Imu/mpu6050.c **** 	float s0, s1, s2, s3;
 177              		.loc 1 79 2 view .LVU27
  80:Drivers/Imu/mpu6050.c **** 	float qDot1, qDot2, qDot3, qDot4;
 178              		.loc 1 80 2 view .LVU28
  81:Drivers/Imu/mpu6050.c **** 	float _2q0, _2q1, _2q2, _2q3, _4q0, _4q1, _4q2 ,_8q1, _8q2, q0q0, q1q1, q2q2, q3q3;
 179              		.loc 1 81 2 view .LVU29
  82:Drivers/Imu/mpu6050.c **** 
 180              		.loc 1 82 2 view .LVU30
  85:Drivers/Imu/mpu6050.c **** 	mpuDataScaled[gyro][Y] *= 0.0174533f;
 181              		.loc 1 85 2 view .LVU31
  85:Drivers/Imu/mpu6050.c **** 	mpuDataScaled[gyro][Y] *= 0.0174533f;
 182              		.loc 1 85 25 is_stmt 0 view .LVU32
 183 0012 F04B     		ldr	r3, .L12
 184 0014 93ED037A 		vldr.32	s14, [r3, #12]
 185 0018 DFEDEF6A 		vldr.32	s13, .L12+4
 186 001c 27EE267A 		vmul.f32	s14, s14, s13
 187 0020 83ED037A 		vstr.32	s14, [r3, #12]
  86:Drivers/Imu/mpu6050.c **** 	mpuDataScaled[gyro][Z] *= 0.0174533f;
 188              		.loc 1 86 2 is_stmt 1 view .LVU33
  86:Drivers/Imu/mpu6050.c **** 	mpuDataScaled[gyro][Z] *= 0.0174533f;
 189              		.loc 1 86 25 is_stmt 0 view .LVU34
 190 0024 D3ED04AA 		vldr.32	s21, [r3, #16]
 191 0028 6AEEA6AA 		vmul.f32	s21, s21, s13
 192 002c C3ED04AA 		vstr.32	s21, [r3, #16]
  87:Drivers/Imu/mpu6050.c **** 
 193              		.loc 1 87 2 is_stmt 1 view .LVU35
  87:Drivers/Imu/mpu6050.c **** 
 194              		.loc 1 87 25 is_stmt 0 view .LVU36
 195 0030 D3ED057A 		vldr.32	s15, [r3, #20]
 196 0034 67EEA67A 		vmul.f32	s15, s15, s13
 197 0038 C3ED057A 		vstr.32	s15, [r3, #20]
  90:Drivers/Imu/mpu6050.c **** 	qDot2 = 0.5f * (q0 * mpuDataScaled[gyro][X] + q2 * mpuDataScaled[gyro][Z] - q3 * mpuDataScaled[gyr
 198              		.loc 1 90 2 is_stmt 1 view .LVU37
  90:Drivers/Imu/mpu6050.c **** 	qDot2 = 0.5f * (q0 * mpuDataScaled[gyro][X] + q2 * mpuDataScaled[gyro][Z] - q3 * mpuDataScaled[gyr
 199              		.loc 1 90 18 is_stmt 0 view .LVU38
 200 003c E74A     		ldr	r2, .L12+8
 201              	.LVL11:
  90:Drivers/Imu/mpu6050.c **** 	qDot2 = 0.5f * (q0 * mpuDataScaled[gyro][X] + q2 * mpuDataScaled[gyro][Z] - q3 * mpuDataScaled[gyr
 202              		.loc 1 90 18 view .LVU39
 203 003e 92ED00DA 		vldr.32	s26, [r2]
  90:Drivers/Imu/mpu6050.c **** 	qDot2 = 0.5f * (q0 * mpuDataScaled[gyro][X] + q2 * mpuDataScaled[gyro][Z] - q3 * mpuDataScaled[gyr
 204              		.loc 1 90 22 view .LVU40
 205 0042 2DEE479A 		vnmul.f32	s18, s26, s14
  90:Drivers/Imu/mpu6050.c **** 	qDot2 = 0.5f * (q0 * mpuDataScaled[gyro][X] + q2 * mpuDataScaled[gyro][Z] - q3 * mpuDataScaled[gyr
 206              		.loc 1 90 52 view .LVU41
 207 0046 E64A     		ldr	r2, .L12+12
 208 0048 92ED00CA 		vldr.32	s24, [r2]
 209 004c 6AEE8C6A 		vmul.f32	s13, s21, s24
  90:Drivers/Imu/mpu6050.c **** 	qDot2 = 0.5f * (q0 * mpuDataScaled[gyro][X] + q2 * mpuDataScaled[gyro][Z] - q3 * mpuDataScaled[gyr
 210              		.loc 1 90 47 view .LVU42
 211 0050 39EE669A 		vsub.f32	s18, s18, s13
  90:Drivers/Imu/mpu6050.c **** 	qDot2 = 0.5f * (q0 * mpuDataScaled[gyro][X] + q2 * mpuDataScaled[gyro][Z] - q3 * mpuDataScaled[gyr
 212              		.loc 1 90 82 view .LVU43
 213 0054 E34A     		ldr	r2, .L12+16
 214 0056 92ED00AA 		vldr.32	s20, [r2]
ARM GAS  C:\Users\Teodor\AppData\Local\Temp\ccQX8tYY.s 			page 8


 215 005a 67EE8A6A 		vmul.f32	s13, s15, s20
  90:Drivers/Imu/mpu6050.c **** 	qDot2 = 0.5f * (q0 * mpuDataScaled[gyro][X] + q2 * mpuDataScaled[gyro][Z] - q3 * mpuDataScaled[gyr
 216              		.loc 1 90 77 view .LVU44
 217 005e 39EE669A 		vsub.f32	s18, s18, s13
  90:Drivers/Imu/mpu6050.c **** 	qDot2 = 0.5f * (q0 * mpuDataScaled[gyro][X] + q2 * mpuDataScaled[gyro][Z] - q3 * mpuDataScaled[gyr
 218              		.loc 1 90 8 view .LVU45
 219 0062 B6EE008A 		vmov.f32	s16, #5.0e-1
 220 0066 29EE089A 		vmul.f32	s18, s18, s16
 221              	.LVL12:
  91:Drivers/Imu/mpu6050.c **** 	qDot3 = 0.5f * (q0 * mpuDataScaled[gyro][Y] - q1 * mpuDataScaled[gyro][Z] + q3 * mpuDataScaled[gyr
 222              		.loc 1 91 2 is_stmt 1 view .LVU46
  91:Drivers/Imu/mpu6050.c **** 	qDot3 = 0.5f * (q0 * mpuDataScaled[gyro][Y] - q1 * mpuDataScaled[gyro][Z] + q3 * mpuDataScaled[gyr
 223              		.loc 1 91 21 is_stmt 0 view .LVU47
 224 006a DF4A     		ldr	r2, .L12+20
 225 006c D2ED00DA 		vldr.32	s27, [r2]
 226 0070 67EE2D8A 		vmul.f32	s17, s14, s27
  91:Drivers/Imu/mpu6050.c **** 	qDot3 = 0.5f * (q0 * mpuDataScaled[gyro][Y] - q1 * mpuDataScaled[gyro][Z] + q3 * mpuDataScaled[gyr
 227              		.loc 1 91 51 view .LVU48
 228 0074 67EE8C6A 		vmul.f32	s13, s15, s24
  91:Drivers/Imu/mpu6050.c **** 	qDot3 = 0.5f * (q0 * mpuDataScaled[gyro][Y] - q1 * mpuDataScaled[gyro][Z] + q3 * mpuDataScaled[gyr
 229              		.loc 1 91 46 view .LVU49
 230 0078 78EEA68A 		vadd.f32	s17, s17, s13
  91:Drivers/Imu/mpu6050.c **** 	qDot3 = 0.5f * (q0 * mpuDataScaled[gyro][Y] - q1 * mpuDataScaled[gyro][Z] + q3 * mpuDataScaled[gyr
 231              		.loc 1 91 81 view .LVU50
 232 007c 6AEE8A6A 		vmul.f32	s13, s21, s20
  91:Drivers/Imu/mpu6050.c **** 	qDot3 = 0.5f * (q0 * mpuDataScaled[gyro][Y] - q1 * mpuDataScaled[gyro][Z] + q3 * mpuDataScaled[gyr
 233              		.loc 1 91 76 view .LVU51
 234 0080 78EEE68A 		vsub.f32	s17, s17, s13
  91:Drivers/Imu/mpu6050.c **** 	qDot3 = 0.5f * (q0 * mpuDataScaled[gyro][Y] - q1 * mpuDataScaled[gyro][Z] + q3 * mpuDataScaled[gyr
 235              		.loc 1 91 8 view .LVU52
 236 0084 68EE888A 		vmul.f32	s17, s17, s16
 237              	.LVL13:
  92:Drivers/Imu/mpu6050.c **** 	qDot4 = 0.5f * (q0 * mpuDataScaled[gyro][Z] + q1 * mpuDataScaled[gyro][Y] - q2 * mpuDataScaled[gyr
 238              		.loc 1 92 2 is_stmt 1 view .LVU53
  92:Drivers/Imu/mpu6050.c **** 	qDot4 = 0.5f * (q0 * mpuDataScaled[gyro][Z] + q1 * mpuDataScaled[gyro][Y] - q2 * mpuDataScaled[gyr
 239              		.loc 1 92 21 is_stmt 0 view .LVU54
 240 0088 6AEEAD9A 		vmul.f32	s19, s21, s27
  92:Drivers/Imu/mpu6050.c **** 	qDot4 = 0.5f * (q0 * mpuDataScaled[gyro][Z] + q1 * mpuDataScaled[gyro][Y] - q2 * mpuDataScaled[gyr
 241              		.loc 1 92 51 view .LVU55
 242 008c 67EE8D6A 		vmul.f32	s13, s15, s26
  92:Drivers/Imu/mpu6050.c **** 	qDot4 = 0.5f * (q0 * mpuDataScaled[gyro][Z] + q1 * mpuDataScaled[gyro][Y] - q2 * mpuDataScaled[gyr
 243              		.loc 1 92 46 view .LVU56
 244 0090 79EEE69A 		vsub.f32	s19, s19, s13
  92:Drivers/Imu/mpu6050.c **** 	qDot4 = 0.5f * (q0 * mpuDataScaled[gyro][Z] + q1 * mpuDataScaled[gyro][Y] - q2 * mpuDataScaled[gyr
 245              		.loc 1 92 81 view .LVU57
 246 0094 67EE0A6A 		vmul.f32	s13, s14, s20
  92:Drivers/Imu/mpu6050.c **** 	qDot4 = 0.5f * (q0 * mpuDataScaled[gyro][Z] + q1 * mpuDataScaled[gyro][Y] - q2 * mpuDataScaled[gyr
 247              		.loc 1 92 76 view .LVU58
 248 0098 79EEA69A 		vadd.f32	s19, s19, s13
  92:Drivers/Imu/mpu6050.c **** 	qDot4 = 0.5f * (q0 * mpuDataScaled[gyro][Z] + q1 * mpuDataScaled[gyro][Y] - q2 * mpuDataScaled[gyr
 249              		.loc 1 92 8 view .LVU59
 250 009c 69EE889A 		vmul.f32	s19, s19, s16
 251              	.LVL14:
  93:Drivers/Imu/mpu6050.c **** 
 252              		.loc 1 93 2 is_stmt 1 view .LVU60
  93:Drivers/Imu/mpu6050.c **** 
 253              		.loc 1 93 21 is_stmt 0 view .LVU61
ARM GAS  C:\Users\Teodor\AppData\Local\Temp\ccQX8tYY.s 			page 9


 254 00a0 67EEAD7A 		vmul.f32	s15, s15, s27
  93:Drivers/Imu/mpu6050.c **** 
 255              		.loc 1 93 51 view .LVU62
 256 00a4 6AEE8DAA 		vmul.f32	s21, s21, s26
  93:Drivers/Imu/mpu6050.c **** 
 257              		.loc 1 93 46 view .LVU63
 258 00a8 77EEAAAA 		vadd.f32	s21, s15, s21
  93:Drivers/Imu/mpu6050.c **** 
 259              		.loc 1 93 81 view .LVU64
 260 00ac 27EE0C7A 		vmul.f32	s14, s14, s24
  93:Drivers/Imu/mpu6050.c **** 
 261              		.loc 1 93 76 view .LVU65
 262 00b0 7AEEC7AA 		vsub.f32	s21, s21, s14
  93:Drivers/Imu/mpu6050.c **** 
 263              		.loc 1 93 8 view .LVU66
 264 00b4 6AEE88AA 		vmul.f32	s21, s21, s16
 265              	.LVL15:
  96:Drivers/Imu/mpu6050.c **** 		//Normalise accelerometer measurement
 266              		.loc 1 96 2 is_stmt 1 view .LVU67
  96:Drivers/Imu/mpu6050.c **** 		//Normalise accelerometer measurement
 267              		.loc 1 96 26 is_stmt 0 view .LVU68
 268 00b8 93ED00BA 		vldr.32	s22, [r3]
  96:Drivers/Imu/mpu6050.c **** 		//Normalise accelerometer measurement
 269              		.loc 1 96 4 view .LVU69
 270 00bc B5EE40BA 		vcmp.f32	s22, #0
 271 00c0 F1EE10FA 		vmrs	APSR_nzcv, FPSCR
 272 00c4 0ED1     		bne	.L9
  96:Drivers/Imu/mpu6050.c **** 		//Normalise accelerometer measurement
 273              		.loc 1 96 61 discriminator 1 view .LVU70
 274 00c6 D3ED017A 		vldr.32	s15, [r3, #4]
  96:Drivers/Imu/mpu6050.c **** 		//Normalise accelerometer measurement
 275              		.loc 1 96 39 discriminator 1 view .LVU71
 276 00ca F5EE407A 		vcmp.f32	s15, #0
 277 00ce F1EE10FA 		vmrs	APSR_nzcv, FPSCR
 278 00d2 07D1     		bne	.L9
  96:Drivers/Imu/mpu6050.c **** 		//Normalise accelerometer measurement
 279              		.loc 1 96 96 discriminator 2 view .LVU72
 280 00d4 D3ED027A 		vldr.32	s15, [r3, #8]
  96:Drivers/Imu/mpu6050.c **** 		//Normalise accelerometer measurement
 281              		.loc 1 96 5 discriminator 2 view .LVU73
 282 00d8 F5EE407A 		vcmp.f32	s15, #0
 283 00dc F1EE10FA 		vmrs	APSR_nzcv, FPSCR
 284 00e0 00F0BF80 		beq	.L10
 285              	.L9:
  98:Drivers/Imu/mpu6050.c **** 		mpuDataScaled[acc][X] *= recipNorm;
 286              		.loc 1 98 3 is_stmt 1 view .LVU74
  98:Drivers/Imu/mpu6050.c **** 		mpuDataScaled[acc][X] *= recipNorm;
 287              		.loc 1 98 45 is_stmt 0 view .LVU75
 288 00e4 6BEE0B7A 		vmul.f32	s15, s22, s22
  98:Drivers/Imu/mpu6050.c **** 		mpuDataScaled[acc][X] *= recipNorm;
 289              		.loc 1 98 89 view .LVU76
 290 00e8 BA4C     		ldr	r4, .L12
 291 00ea 94ED01EA 		vldr.32	s28, [r4, #4]
  98:Drivers/Imu/mpu6050.c **** 		mpuDataScaled[acc][X] *= recipNorm;
 292              		.loc 1 98 93 view .LVU77
 293 00ee 2EEE0E0A 		vmul.f32	s0, s28, s28
 294              	.LVL16:
ARM GAS  C:\Users\Teodor\AppData\Local\Temp\ccQX8tYY.s 			page 10


  98:Drivers/Imu/mpu6050.c **** 		mpuDataScaled[acc][X] *= recipNorm;
 295              		.loc 1 98 69 view .LVU78
 296 00f2 77EE807A 		vadd.f32	s15, s15, s0
  98:Drivers/Imu/mpu6050.c **** 		mpuDataScaled[acc][X] *= recipNorm;
 297              		.loc 1 98 137 view .LVU79
 298 00f6 94ED028A 		vldr.32	s16, [r4, #8]
  98:Drivers/Imu/mpu6050.c **** 		mpuDataScaled[acc][X] *= recipNorm;
 299              		.loc 1 98 141 view .LVU80
 300 00fa 28EE080A 		vmul.f32	s0, s16, s16
  98:Drivers/Imu/mpu6050.c **** 		mpuDataScaled[acc][X] *= recipNorm;
 301              		.loc 1 98 15 view .LVU81
 302 00fe 37EE800A 		vadd.f32	s0, s15, s0
 303 0102 FFF7FEFF 		bl	invSqrt
 304              	.LVL17:
  99:Drivers/Imu/mpu6050.c **** 		mpuDataScaled[acc][Y] *= recipNorm;
 305              		.loc 1 99 3 is_stmt 1 view .LVU82
  99:Drivers/Imu/mpu6050.c **** 		mpuDataScaled[acc][Y] *= recipNorm;
 306              		.loc 1 99 25 is_stmt 0 view .LVU83
 307 0106 2BEE006A 		vmul.f32	s12, s22, s0
 308 010a 84ED006A 		vstr.32	s12, [r4]
 100:Drivers/Imu/mpu6050.c **** 		mpuDataScaled[acc][Z] *= recipNorm;
 309              		.loc 1 100 3 is_stmt 1 view .LVU84
 100:Drivers/Imu/mpu6050.c **** 		mpuDataScaled[acc][Z] *= recipNorm;
 310              		.loc 1 100 25 is_stmt 0 view .LVU85
 311 010e 6EEE005A 		vmul.f32	s11, s28, s0
 312 0112 C4ED015A 		vstr.32	s11, [r4, #4]
 101:Drivers/Imu/mpu6050.c **** 
 313              		.loc 1 101 3 is_stmt 1 view .LVU86
 101:Drivers/Imu/mpu6050.c **** 
 314              		.loc 1 101 25 is_stmt 0 view .LVU87
 315 0116 28EE000A 		vmul.f32	s0, s16, s0
 316              	.LVL18:
 101:Drivers/Imu/mpu6050.c **** 
 317              		.loc 1 101 25 view .LVU88
 318 011a 84ED020A 		vstr.32	s0, [r4, #8]
 104:Drivers/Imu/mpu6050.c **** 		_2q1 = 2.0f * q1;
 319              		.loc 1 104 3 is_stmt 1 view .LVU89
 104:Drivers/Imu/mpu6050.c **** 		_2q1 = 2.0f * q1;
 320              		.loc 1 104 8 is_stmt 0 view .LVU90
 321 011e 7DEEAD7A 		vadd.f32	s15, s27, s27
 105:Drivers/Imu/mpu6050.c **** 		_2q2 = 2.0f * q2;
 322              		.loc 1 105 3 is_stmt 1 view .LVU91
 105:Drivers/Imu/mpu6050.c **** 		_2q2 = 2.0f * q2;
 323              		.loc 1 105 8 is_stmt 0 view .LVU92
 324 0122 7DEE0D3A 		vadd.f32	s7, s26, s26
 106:Drivers/Imu/mpu6050.c **** 		_2q3 = 2.0f * q3;
 325              		.loc 1 106 3 is_stmt 1 view .LVU93
 106:Drivers/Imu/mpu6050.c **** 		_2q3 = 2.0f * q3;
 326              		.loc 1 106 8 is_stmt 0 view .LVU94
 327 0126 3CEE0C4A 		vadd.f32	s8, s24, s24
 107:Drivers/Imu/mpu6050.c **** 		_4q0 = 4.0f * q0;
 328              		.loc 1 107 3 is_stmt 1 view .LVU95
 107:Drivers/Imu/mpu6050.c **** 		_4q0 = 4.0f * q0;
 329              		.loc 1 107 8 is_stmt 0 view .LVU96
 330 012a 7AEE0A2A 		vadd.f32	s5, s20, s20
 108:Drivers/Imu/mpu6050.c **** 		_4q1 = 4.0f * q1;
 331              		.loc 1 108 3 is_stmt 1 view .LVU97
ARM GAS  C:\Users\Teodor\AppData\Local\Temp\ccQX8tYY.s 			page 11


 108:Drivers/Imu/mpu6050.c **** 		_4q1 = 4.0f * q1;
 332              		.loc 1 108 8 is_stmt 0 view .LVU98
 333 012e F1EE004A 		vmov.f32	s9, #4.0e+0
 334 0132 6DEEA40A 		vmul.f32	s1, s27, s9
 335              	.LVL19:
 109:Drivers/Imu/mpu6050.c **** 		_4q2 = 4.0f * q2;
 336              		.loc 1 109 3 is_stmt 1 view .LVU99
 109:Drivers/Imu/mpu6050.c **** 		_4q2 = 4.0f * q2;
 337              		.loc 1 109 8 is_stmt 0 view .LVU100
 338 0136 6DEE241A 		vmul.f32	s3, s26, s9
 339              	.LVL20:
 110:Drivers/Imu/mpu6050.c **** 		_8q1 = 8.0f * q1;
 340              		.loc 1 110 3 is_stmt 1 view .LVU101
 110:Drivers/Imu/mpu6050.c **** 		_8q1 = 8.0f * q1;
 341              		.loc 1 110 8 is_stmt 0 view .LVU102
 342 013a 2CEE243A 		vmul.f32	s6, s24, s9
 343              	.LVL21:
 111:Drivers/Imu/mpu6050.c **** 		_8q2 = 8.0f * q2;
 344              		.loc 1 111 3 is_stmt 1 view .LVU103
 111:Drivers/Imu/mpu6050.c **** 		_8q2 = 8.0f * q2;
 345              		.loc 1 111 8 is_stmt 0 view .LVU104
 346 013e B2EE008A 		vmov.f32	s16, #8.0e+0
 347 0142 2DEE081A 		vmul.f32	s2, s26, s16
 348              	.LVL22:
 112:Drivers/Imu/mpu6050.c **** 		q0q0 = q0 * q0;
 349              		.loc 1 112 3 is_stmt 1 view .LVU105
 112:Drivers/Imu/mpu6050.c **** 		q0q0 = q0 * q0;
 350              		.loc 1 112 8 is_stmt 0 view .LVU106
 351 0146 2CEE088A 		vmul.f32	s16, s24, s16
 352              	.LVL23:
 113:Drivers/Imu/mpu6050.c **** 		q1q1 = q1 * q1;
 353              		.loc 1 113 3 is_stmt 1 view .LVU107
 113:Drivers/Imu/mpu6050.c **** 		q1q1 = q1 * q1;
 354              		.loc 1 113 8 is_stmt 0 view .LVU108
 355 014a 2DEEAD7A 		vmul.f32	s14, s27, s27
 356              	.LVL24:
 114:Drivers/Imu/mpu6050.c **** 		q2q2 = q2 * q2;
 357              		.loc 1 114 3 is_stmt 1 view .LVU109
 114:Drivers/Imu/mpu6050.c **** 		q2q2 = q2 * q2;
 358              		.loc 1 114 8 is_stmt 0 view .LVU110
 359 014e 6DEE0D6A 		vmul.f32	s13, s26, s26
 360              	.LVL25:
 115:Drivers/Imu/mpu6050.c **** 		q3q3 = q3 * q3;
 361              		.loc 1 115 3 is_stmt 1 view .LVU111
 115:Drivers/Imu/mpu6050.c **** 		q3q3 = q3 * q3;
 362              		.loc 1 115 8 is_stmt 0 view .LVU112
 363 0152 2CEE0C5A 		vmul.f32	s10, s24, s24
 364              	.LVL26:
 116:Drivers/Imu/mpu6050.c **** 
 365              		.loc 1 116 3 is_stmt 1 view .LVU113
 116:Drivers/Imu/mpu6050.c **** 
 366              		.loc 1 116 8 is_stmt 0 view .LVU114
 367 0156 2AEE0A2A 		vmul.f32	s4, s20, s20
 119:Drivers/Imu/mpu6050.c **** 		s1 = _4q1 * q3q3 - _2q3 * mpuDataScaled[acc][X] + 4.0f * q0q0 * q1 - _2q0 * mpuDataScaled[acc][Y]
 368              		.loc 1 119 3 is_stmt 1 view .LVU115
 119:Drivers/Imu/mpu6050.c **** 		s1 = _4q1 * q3q3 - _2q3 * mpuDataScaled[acc][X] + 4.0f * q0q0 * q1 - _2q0 * mpuDataScaled[acc][Y]
 369              		.loc 1 119 13 is_stmt 0 view .LVU116
ARM GAS  C:\Users\Teodor\AppData\Local\Temp\ccQX8tYY.s 			page 12


 370 015a 60EE85BA 		vmul.f32	s23, s1, s10
 119:Drivers/Imu/mpu6050.c **** 		s1 = _4q1 * q3q3 - _2q3 * mpuDataScaled[acc][X] + 4.0f * q0q0 * q1 - _2q0 * mpuDataScaled[acc][Y]
 371              		.loc 1 119 27 view .LVU117
 372 015e 26EE04BA 		vmul.f32	s22, s12, s8
 119:Drivers/Imu/mpu6050.c **** 		s1 = _4q1 * q3q3 - _2q3 * mpuDataScaled[acc][X] + 4.0f * q0q0 * q1 - _2q0 * mpuDataScaled[acc][Y]
 373              		.loc 1 119 20 view .LVU118
 374 0162 7BEE8BBA 		vadd.f32	s23, s23, s22
 119:Drivers/Imu/mpu6050.c **** 		s1 = _4q1 * q3q3 - _2q3 * mpuDataScaled[acc][X] + 4.0f * q0q0 * q1 - _2q0 * mpuDataScaled[acc][Y]
 375              		.loc 1 119 58 view .LVU119
 376 0166 60EEA60A 		vmul.f32	s1, s1, s13
 377              	.LVL27:
 119:Drivers/Imu/mpu6050.c **** 		s1 = _4q1 * q3q3 - _2q3 * mpuDataScaled[acc][X] + 4.0f * q0q0 * q1 - _2q0 * mpuDataScaled[acc][Y]
 378              		.loc 1 119 51 view .LVU120
 379 016a 7BEEA0BA 		vadd.f32	s23, s23, s1
 119:Drivers/Imu/mpu6050.c **** 		s1 = _4q1 * q3q3 - _2q3 * mpuDataScaled[acc][X] + 4.0f * q0q0 * q1 - _2q0 * mpuDataScaled[acc][Y]
 380              		.loc 1 119 72 view .LVU121
 381 016e 65EEA30A 		vmul.f32	s1, s11, s7
 119:Drivers/Imu/mpu6050.c **** 		s1 = _4q1 * q3q3 - _2q3 * mpuDataScaled[acc][X] + 4.0f * q0q0 * q1 - _2q0 * mpuDataScaled[acc][Y]
 382              		.loc 1 119 6 view .LVU122
 383 0172 7BEEE0BA 		vsub.f32	s23, s23, s1
 384              	.LVL28:
 120:Drivers/Imu/mpu6050.c **** 		s2 = 4.0f * q0q0 * q2 + _2q0 * mpuDataScaled[acc][X] + _4q2 * q3q3 - _2q3 * mpuDataScaled[acc][Y]
 385              		.loc 1 120 3 is_stmt 1 view .LVU123
 120:Drivers/Imu/mpu6050.c **** 		s2 = 4.0f * q0q0 * q2 + _2q0 * mpuDataScaled[acc][X] + _4q2 * q3q3 - _2q3 * mpuDataScaled[acc][Y]
 386              		.loc 1 120 13 is_stmt 0 view .LVU124
 387 0176 21EE82BA 		vmul.f32	s22, s3, s4
 120:Drivers/Imu/mpu6050.c **** 		s2 = 4.0f * q0q0 * q2 + _2q0 * mpuDataScaled[acc][X] + _4q2 * q3q3 - _2q3 * mpuDataScaled[acc][Y]
 388              		.loc 1 120 27 view .LVU125
 389 017a 66EE220A 		vmul.f32	s1, s12, s5
 120:Drivers/Imu/mpu6050.c **** 		s2 = 4.0f * q0q0 * q2 + _2q0 * mpuDataScaled[acc][X] + _4q2 * q3q3 - _2q3 * mpuDataScaled[acc][Y]
 390              		.loc 1 120 20 view .LVU126
 391 017e 3BEE60BA 		vsub.f32	s22, s22, s1
 120:Drivers/Imu/mpu6050.c **** 		s2 = 4.0f * q0q0 * q2 + _2q0 * mpuDataScaled[acc][X] + _4q2 * q3q3 - _2q3 * mpuDataScaled[acc][Y]
 392              		.loc 1 120 58 view .LVU127
 393 0182 27EE247A 		vmul.f32	s14, s14, s9
 394              	.LVL29:
 120:Drivers/Imu/mpu6050.c **** 		s2 = 4.0f * q0q0 * q2 + _2q0 * mpuDataScaled[acc][X] + _4q2 * q3q3 - _2q3 * mpuDataScaled[acc][Y]
 395              		.loc 1 120 65 view .LVU128
 396 0186 6DEE070A 		vmul.f32	s1, s26, s14
 120:Drivers/Imu/mpu6050.c **** 		s2 = 4.0f * q0q0 * q2 + _2q0 * mpuDataScaled[acc][X] + _4q2 * q3q3 - _2q3 * mpuDataScaled[acc][Y]
 397              		.loc 1 120 51 view .LVU129
 398 018a 3BEE20BA 		vadd.f32	s22, s22, s1
 120:Drivers/Imu/mpu6050.c **** 		s2 = 4.0f * q0q0 * q2 + _2q0 * mpuDataScaled[acc][X] + _4q2 * q3q3 - _2q3 * mpuDataScaled[acc][Y]
 399              		.loc 1 120 77 view .LVU130
 400 018e 65EEA70A 		vmul.f32	s1, s11, s15
 120:Drivers/Imu/mpu6050.c **** 		s2 = 4.0f * q0q0 * q2 + _2q0 * mpuDataScaled[acc][X] + _4q2 * q3q3 - _2q3 * mpuDataScaled[acc][Y]
 401              		.loc 1 120 70 view .LVU131
 402 0192 3BEE60BA 		vsub.f32	s22, s22, s1
 120:Drivers/Imu/mpu6050.c **** 		s2 = 4.0f * q0q0 * q2 + _2q0 * mpuDataScaled[acc][X] + _4q2 * q3q3 - _2q3 * mpuDataScaled[acc][Y]
 403              		.loc 1 120 101 view .LVU132
 404 0196 3BEE61BA 		vsub.f32	s22, s22, s3
 120:Drivers/Imu/mpu6050.c **** 		s2 = 4.0f * q0q0 * q2 + _2q0 * mpuDataScaled[acc][X] + _4q2 * q3q3 - _2q3 * mpuDataScaled[acc][Y]
 405              		.loc 1 120 115 view .LVU133
 406 019a 61EE260A 		vmul.f32	s1, s2, s13
 120:Drivers/Imu/mpu6050.c **** 		s2 = 4.0f * q0q0 * q2 + _2q0 * mpuDataScaled[acc][X] + _4q2 * q3q3 - _2q3 * mpuDataScaled[acc][Y]
 407              		.loc 1 120 108 view .LVU134
 408 019e 3BEE20BA 		vadd.f32	s22, s22, s1
ARM GAS  C:\Users\Teodor\AppData\Local\Temp\ccQX8tYY.s 			page 13


 120:Drivers/Imu/mpu6050.c **** 		s2 = 4.0f * q0q0 * q2 + _2q0 * mpuDataScaled[acc][X] + _4q2 * q3q3 - _2q3 * mpuDataScaled[acc][Y]
 409              		.loc 1 120 129 view .LVU135
 410 01a2 21EE051A 		vmul.f32	s2, s2, s10
 411              	.LVL30:
 120:Drivers/Imu/mpu6050.c **** 		s2 = 4.0f * q0q0 * q2 + _2q0 * mpuDataScaled[acc][X] + _4q2 * q3q3 - _2q3 * mpuDataScaled[acc][Y]
 412              		.loc 1 120 122 view .LVU136
 413 01a6 3BEE01BA 		vadd.f32	s22, s22, s2
 120:Drivers/Imu/mpu6050.c **** 		s2 = 4.0f * q0q0 * q2 + _2q0 * mpuDataScaled[acc][X] + _4q2 * q3q3 - _2q3 * mpuDataScaled[acc][Y]
 414              		.loc 1 120 143 view .LVU137
 415 01aa 60EE211A 		vmul.f32	s3, s0, s3
 416              	.LVL31:
 120:Drivers/Imu/mpu6050.c **** 		s2 = 4.0f * q0q0 * q2 + _2q0 * mpuDataScaled[acc][X] + _4q2 * q3q3 - _2q3 * mpuDataScaled[acc][Y]
 417              		.loc 1 120 6 view .LVU138
 418 01ae 3BEE21BA 		vadd.f32	s22, s22, s3
 419              	.LVL32:
 121:Drivers/Imu/mpu6050.c **** 		s3 = 4.0f * q1q1 * q3 - _2q1 * mpuDataScaled[acc][X] + 4.0f * q2q2 * q3 - _2q2 * mpuDataScaled[ac
 420              		.loc 1 121 3 is_stmt 1 view .LVU139
 121:Drivers/Imu/mpu6050.c **** 		s3 = 4.0f * q1q1 * q3 - _2q1 * mpuDataScaled[acc][X] + 4.0f * q2q2 * q3 - _2q2 * mpuDataScaled[ac
 421              		.loc 1 121 20 is_stmt 0 view .LVU140
 422 01b2 2CEE077A 		vmul.f32	s14, s24, s14
 121:Drivers/Imu/mpu6050.c **** 		s3 = 4.0f * q1q1 * q3 - _2q1 * mpuDataScaled[acc][X] + 4.0f * q2q2 * q3 - _2q2 * mpuDataScaled[ac
 423              		.loc 1 121 32 view .LVU141
 424 01b6 66EE277A 		vmul.f32	s15, s12, s15
 121:Drivers/Imu/mpu6050.c **** 		s3 = 4.0f * q1q1 * q3 - _2q1 * mpuDataScaled[acc][X] + 4.0f * q2q2 * q3 - _2q2 * mpuDataScaled[ac
 425              		.loc 1 121 25 view .LVU142
 426 01ba 77EE277A 		vadd.f32	s15, s14, s15
 121:Drivers/Imu/mpu6050.c **** 		s3 = 4.0f * q1q1 * q3 - _2q1 * mpuDataScaled[acc][X] + 4.0f * q2q2 * q3 - _2q2 * mpuDataScaled[ac
 427              		.loc 1 121 63 view .LVU143
 428 01be 23EE022A 		vmul.f32	s4, s6, s4
 121:Drivers/Imu/mpu6050.c **** 		s3 = 4.0f * q1q1 * q3 - _2q1 * mpuDataScaled[acc][X] + 4.0f * q2q2 * q3 - _2q2 * mpuDataScaled[ac
 429              		.loc 1 121 56 view .LVU144
 430 01c2 77EE827A 		vadd.f32	s15, s15, s4
 121:Drivers/Imu/mpu6050.c **** 		s3 = 4.0f * q1q1 * q3 - _2q1 * mpuDataScaled[acc][X] + 4.0f * q2q2 * q3 - _2q2 * mpuDataScaled[ac
 431              		.loc 1 121 77 view .LVU145
 432 01c6 65EEA22A 		vmul.f32	s5, s11, s5
 121:Drivers/Imu/mpu6050.c **** 		s3 = 4.0f * q1q1 * q3 - _2q1 * mpuDataScaled[acc][X] + 4.0f * q2q2 * q3 - _2q2 * mpuDataScaled[ac
 433              		.loc 1 121 70 view .LVU146
 434 01ca 77EEE27A 		vsub.f32	s15, s15, s5
 121:Drivers/Imu/mpu6050.c **** 		s3 = 4.0f * q1q1 * q3 - _2q1 * mpuDataScaled[acc][X] + 4.0f * q2q2 * q3 - _2q2 * mpuDataScaled[ac
 435              		.loc 1 121 101 view .LVU147
 436 01ce 77EEC37A 		vsub.f32	s15, s15, s6
 121:Drivers/Imu/mpu6050.c **** 		s3 = 4.0f * q1q1 * q3 - _2q1 * mpuDataScaled[acc][X] + 4.0f * q2q2 * q3 - _2q2 * mpuDataScaled[ac
 437              		.loc 1 121 115 view .LVU148
 438 01d2 28EE267A 		vmul.f32	s14, s16, s13
 121:Drivers/Imu/mpu6050.c **** 		s3 = 4.0f * q1q1 * q3 - _2q1 * mpuDataScaled[acc][X] + 4.0f * q2q2 * q3 - _2q2 * mpuDataScaled[ac
 439              		.loc 1 121 108 view .LVU149
 440 01d6 77EE877A 		vadd.f32	s15, s15, s14
 121:Drivers/Imu/mpu6050.c **** 		s3 = 4.0f * q1q1 * q3 - _2q1 * mpuDataScaled[acc][X] + 4.0f * q2q2 * q3 - _2q2 * mpuDataScaled[ac
 441              		.loc 1 121 129 view .LVU150
 442 01da 28EE058A 		vmul.f32	s16, s16, s10
 443              	.LVL33:
 121:Drivers/Imu/mpu6050.c **** 		s3 = 4.0f * q1q1 * q3 - _2q1 * mpuDataScaled[acc][X] + 4.0f * q2q2 * q3 - _2q2 * mpuDataScaled[ac
 444              		.loc 1 121 122 view .LVU151
 445 01de 77EE887A 		vadd.f32	s15, s15, s16
 121:Drivers/Imu/mpu6050.c **** 		s3 = 4.0f * q1q1 * q3 - _2q1 * mpuDataScaled[acc][X] + 4.0f * q2q2 * q3 - _2q2 * mpuDataScaled[ac
 446              		.loc 1 121 143 view .LVU152
 447 01e2 20EE038A 		vmul.f32	s16, s0, s6
ARM GAS  C:\Users\Teodor\AppData\Local\Temp\ccQX8tYY.s 			page 14


 121:Drivers/Imu/mpu6050.c **** 		s3 = 4.0f * q1q1 * q3 - _2q1 * mpuDataScaled[acc][X] + 4.0f * q2q2 * q3 - _2q2 * mpuDataScaled[ac
 448              		.loc 1 121 6 view .LVU153
 449 01e6 37EE888A 		vadd.f32	s16, s15, s16
 450              	.LVL34:
 122:Drivers/Imu/mpu6050.c **** 		recipNorm = invSqrt(s0 * s0 + s1 * s1 + s2 * s2 + s3 * s3); //normalise step magnitude
 451              		.loc 1 122 3 is_stmt 1 view .LVU154
 122:Drivers/Imu/mpu6050.c **** 		recipNorm = invSqrt(s0 * s0 + s1 * s1 + s2 * s2 + s3 * s3); //normalise step magnitude
 452              		.loc 1 122 13 is_stmt 0 view .LVU155
 453 01ea 26EEA4EA 		vmul.f32	s28, s13, s9
 122:Drivers/Imu/mpu6050.c **** 		recipNorm = invSqrt(s0 * s0 + s1 * s1 + s2 * s2 + s3 * s3); //normalise step magnitude
 454              		.loc 1 122 20 view .LVU156
 455 01ee 2AEE0EEA 		vmul.f32	s28, s20, s28
 122:Drivers/Imu/mpu6050.c **** 		recipNorm = invSqrt(s0 * s0 + s1 * s1 + s2 * s2 + s3 * s3); //normalise step magnitude
 456              		.loc 1 122 32 view .LVU157
 457 01f2 66EE233A 		vmul.f32	s7, s12, s7
 122:Drivers/Imu/mpu6050.c **** 		recipNorm = invSqrt(s0 * s0 + s1 * s1 + s2 * s2 + s3 * s3); //normalise step magnitude
 458              		.loc 1 122 25 view .LVU158
 459 01f6 3EEE63EA 		vsub.f32	s28, s28, s7
 122:Drivers/Imu/mpu6050.c **** 		recipNorm = invSqrt(s0 * s0 + s1 * s1 + s2 * s2 + s3 * s3); //normalise step magnitude
 460              		.loc 1 122 63 view .LVU159
 461 01fa 25EE245A 		vmul.f32	s10, s10, s9
 462              	.LVL35:
 122:Drivers/Imu/mpu6050.c **** 		recipNorm = invSqrt(s0 * s0 + s1 * s1 + s2 * s2 + s3 * s3); //normalise step magnitude
 463              		.loc 1 122 70 view .LVU160
 464 01fe 2AEE055A 		vmul.f32	s10, s20, s10
 122:Drivers/Imu/mpu6050.c **** 		recipNorm = invSqrt(s0 * s0 + s1 * s1 + s2 * s2 + s3 * s3); //normalise step magnitude
 465              		.loc 1 122 56 view .LVU161
 466 0202 3EEE05EA 		vadd.f32	s28, s28, s10
 122:Drivers/Imu/mpu6050.c **** 		recipNorm = invSqrt(s0 * s0 + s1 * s1 + s2 * s2 + s3 * s3); //normalise step magnitude
 467              		.loc 1 122 82 view .LVU162
 468 0206 65EE845A 		vmul.f32	s11, s11, s8
 122:Drivers/Imu/mpu6050.c **** 		recipNorm = invSqrt(s0 * s0 + s1 * s1 + s2 * s2 + s3 * s3); //normalise step magnitude
 469              		.loc 1 122 6 view .LVU163
 470 020a 3EEE65EA 		vsub.f32	s28, s28, s11
 471              	.LVL36:
 123:Drivers/Imu/mpu6050.c **** 		s0 *= recipNorm;
 472              		.loc 1 123 3 is_stmt 1 view .LVU164
 123:Drivers/Imu/mpu6050.c **** 		s0 *= recipNorm;
 473              		.loc 1 123 26 is_stmt 0 view .LVU165
 474 020e 6BEEAB7A 		vmul.f32	s15, s23, s23
 123:Drivers/Imu/mpu6050.c **** 		s0 *= recipNorm;
 475              		.loc 1 123 36 view .LVU166
 476 0212 2BEE0B0A 		vmul.f32	s0, s22, s22
 123:Drivers/Imu/mpu6050.c **** 		s0 *= recipNorm;
 477              		.loc 1 123 31 view .LVU167
 478 0216 77EE807A 		vadd.f32	s15, s15, s0
 123:Drivers/Imu/mpu6050.c **** 		s0 *= recipNorm;
 479              		.loc 1 123 46 view .LVU168
 480 021a 28EE080A 		vmul.f32	s0, s16, s16
 123:Drivers/Imu/mpu6050.c **** 		s0 *= recipNorm;
 481              		.loc 1 123 41 view .LVU169
 482 021e 77EE807A 		vadd.f32	s15, s15, s0
 123:Drivers/Imu/mpu6050.c **** 		s0 *= recipNorm;
 483              		.loc 1 123 56 view .LVU170
 484 0222 2EEE0E0A 		vmul.f32	s0, s28, s28
 123:Drivers/Imu/mpu6050.c **** 		s0 *= recipNorm;
 485              		.loc 1 123 15 view .LVU171
ARM GAS  C:\Users\Teodor\AppData\Local\Temp\ccQX8tYY.s 			page 15


 486 0226 37EE800A 		vadd.f32	s0, s15, s0
 487 022a FFF7FEFF 		bl	invSqrt
 488              	.LVL37:
 124:Drivers/Imu/mpu6050.c **** 		s1 *= recipNorm;
 489              		.loc 1 124 3 is_stmt 1 view .LVU172
 124:Drivers/Imu/mpu6050.c **** 		s1 *= recipNorm;
 490              		.loc 1 124 6 is_stmt 0 view .LVU173
 491 022e 6BEE80BA 		vmul.f32	s23, s23, s0
 492              	.LVL38:
 125:Drivers/Imu/mpu6050.c **** 		s2 *= recipNorm;
 493              		.loc 1 125 3 is_stmt 1 view .LVU174
 125:Drivers/Imu/mpu6050.c **** 		s2 *= recipNorm;
 494              		.loc 1 125 6 is_stmt 0 view .LVU175
 495 0232 2BEE00BA 		vmul.f32	s22, s22, s0
 496              	.LVL39:
 126:Drivers/Imu/mpu6050.c **** 		s3 *= recipNorm;
 497              		.loc 1 126 3 is_stmt 1 view .LVU176
 126:Drivers/Imu/mpu6050.c **** 		s3 *= recipNorm;
 498              		.loc 1 126 6 is_stmt 0 view .LVU177
 499 0236 28EE008A 		vmul.f32	s16, s16, s0
 500              	.LVL40:
 127:Drivers/Imu/mpu6050.c **** 
 501              		.loc 1 127 3 is_stmt 1 view .LVU178
 127:Drivers/Imu/mpu6050.c **** 
 502              		.loc 1 127 6 is_stmt 0 view .LVU179
 503 023a 2EEE00EA 		vmul.f32	s28, s28, s0
 504              	.LVL41:
 130:Drivers/Imu/mpu6050.c **** 		qDot2 -= B_madgwick * s1;
 505              		.loc 1 130 3 is_stmt 1 view .LVU180
 130:Drivers/Imu/mpu6050.c **** 		qDot2 -= B_madgwick * s1;
 506              		.loc 1 130 23 is_stmt 0 view .LVU181
 507 023e 9FED6B0A 		vldr.32	s0, .L12+24
 508              	.LVL42:
 130:Drivers/Imu/mpu6050.c **** 		qDot2 -= B_madgwick * s1;
 509              		.loc 1 130 23 view .LVU182
 510 0242 6BEE80BA 		vmul.f32	s23, s23, s0
 511              	.LVL43:
 130:Drivers/Imu/mpu6050.c **** 		qDot2 -= B_madgwick * s1;
 512              		.loc 1 130 9 view .LVU183
 513 0246 39EE6B9A 		vsub.f32	s18, s18, s23
 514              	.LVL44:
 131:Drivers/Imu/mpu6050.c **** 		qDot3 -= B_madgwick * s2;
 515              		.loc 1 131 3 is_stmt 1 view .LVU184
 131:Drivers/Imu/mpu6050.c **** 		qDot3 -= B_madgwick * s2;
 516              		.loc 1 131 23 is_stmt 0 view .LVU185
 517 024a 2BEE00BA 		vmul.f32	s22, s22, s0
 518              	.LVL45:
 131:Drivers/Imu/mpu6050.c **** 		qDot3 -= B_madgwick * s2;
 519              		.loc 1 131 9 view .LVU186
 520 024e 78EECB8A 		vsub.f32	s17, s17, s22
 521              	.LVL46:
 132:Drivers/Imu/mpu6050.c **** 		qDot4 -= B_madgwick * s3;
 522              		.loc 1 132 3 is_stmt 1 view .LVU187
 132:Drivers/Imu/mpu6050.c **** 		qDot4 -= B_madgwick * s3;
 523              		.loc 1 132 23 is_stmt 0 view .LVU188
 524 0252 28EE008A 		vmul.f32	s16, s16, s0
 525              	.LVL47:
ARM GAS  C:\Users\Teodor\AppData\Local\Temp\ccQX8tYY.s 			page 16


 132:Drivers/Imu/mpu6050.c **** 		qDot4 -= B_madgwick * s3;
 526              		.loc 1 132 9 view .LVU189
 527 0256 79EEC89A 		vsub.f32	s19, s19, s16
 528              	.LVL48:
 133:Drivers/Imu/mpu6050.c **** 	}
 529              		.loc 1 133 3 is_stmt 1 view .LVU190
 133:Drivers/Imu/mpu6050.c **** 	}
 530              		.loc 1 133 23 is_stmt 0 view .LVU191
 531 025a 2EEE00EA 		vmul.f32	s28, s28, s0
 532              	.LVL49:
 133:Drivers/Imu/mpu6050.c **** 	}
 533              		.loc 1 133 9 view .LVU192
 534 025e 7AEECEAA 		vsub.f32	s21, s21, s28
 535              	.LVL50:
 536              	.L10:
 137:Drivers/Imu/mpu6050.c **** 	q1 += qDot2 * invSampleFreq;
 537              		.loc 1 137 2 is_stmt 1 view .LVU193
 137:Drivers/Imu/mpu6050.c **** 	q1 += qDot2 * invSampleFreq;
 538              		.loc 1 137 14 is_stmt 0 view .LVU194
 539 0262 29EE2C9A 		vmul.f32	s18, s18, s25
 540              	.LVL51:
 137:Drivers/Imu/mpu6050.c **** 	q1 += qDot2 * invSampleFreq;
 541              		.loc 1 137 5 view .LVU195
 542 0266 7DEE89DA 		vadd.f32	s27, s27, s18
 543 026a 5F4C     		ldr	r4, .L12+20
 544 026c C4ED00DA 		vstr.32	s27, [r4]
 138:Drivers/Imu/mpu6050.c **** 	q2 += qDot3 * invSampleFreq;
 545              		.loc 1 138 2 is_stmt 1 view .LVU196
 138:Drivers/Imu/mpu6050.c **** 	q2 += qDot3 * invSampleFreq;
 546              		.loc 1 138 14 is_stmt 0 view .LVU197
 547 0270 68EEAC8A 		vmul.f32	s17, s17, s25
 548              	.LVL52:
 138:Drivers/Imu/mpu6050.c **** 	q2 += qDot3 * invSampleFreq;
 549              		.loc 1 138 5 view .LVU198
 550 0274 7DEE288A 		vadd.f32	s17, s26, s17
 551 0278 584E     		ldr	r6, .L12+8
 552 027a C6ED008A 		vstr.32	s17, [r6]
 139:Drivers/Imu/mpu6050.c **** 	q3 += qDot4 * invSampleFreq;
 553              		.loc 1 139 2 is_stmt 1 view .LVU199
 139:Drivers/Imu/mpu6050.c **** 	q3 += qDot4 * invSampleFreq;
 554              		.loc 1 139 14 is_stmt 0 view .LVU200
 555 027e 69EEAC9A 		vmul.f32	s19, s19, s25
 556              	.LVL53:
 139:Drivers/Imu/mpu6050.c **** 	q3 += qDot4 * invSampleFreq;
 557              		.loc 1 139 5 view .LVU201
 558 0282 7CEE299A 		vadd.f32	s19, s24, s19
 559 0286 DFF858A1 		ldr	r10, .L12+12
 560 028a CAED009A 		vstr.32	s19, [r10]
 140:Drivers/Imu/mpu6050.c **** 
 561              		.loc 1 140 2 is_stmt 1 view .LVU202
 140:Drivers/Imu/mpu6050.c **** 
 562              		.loc 1 140 14 is_stmt 0 view .LVU203
 563 028e 2AEEAC8A 		vmul.f32	s16, s21, s25
 140:Drivers/Imu/mpu6050.c **** 
 564              		.loc 1 140 5 view .LVU204
 565 0292 3AEE088A 		vadd.f32	s16, s20, s16
 566 0296 534D     		ldr	r5, .L12+16
ARM GAS  C:\Users\Teodor\AppData\Local\Temp\ccQX8tYY.s 			page 17


 567 0298 85ED008A 		vstr.32	s16, [r5]
 143:Drivers/Imu/mpu6050.c **** 	q0 *= recipNorm;
 568              		.loc 1 143 2 is_stmt 1 view .LVU205
 143:Drivers/Imu/mpu6050.c **** 	q0 *= recipNorm;
 569              		.loc 1 143 25 is_stmt 0 view .LVU206
 570 029c 6DEEAD7A 		vmul.f32	s15, s27, s27
 143:Drivers/Imu/mpu6050.c **** 	q0 *= recipNorm;
 571              		.loc 1 143 35 view .LVU207
 572 02a0 28EEA80A 		vmul.f32	s0, s17, s17
 143:Drivers/Imu/mpu6050.c **** 	q0 *= recipNorm;
 573              		.loc 1 143 30 view .LVU208
 574 02a4 77EE807A 		vadd.f32	s15, s15, s0
 143:Drivers/Imu/mpu6050.c **** 	q0 *= recipNorm;
 575              		.loc 1 143 45 view .LVU209
 576 02a8 29EEA90A 		vmul.f32	s0, s19, s19
 143:Drivers/Imu/mpu6050.c **** 	q0 *= recipNorm;
 577              		.loc 1 143 40 view .LVU210
 578 02ac 77EE807A 		vadd.f32	s15, s15, s0
 143:Drivers/Imu/mpu6050.c **** 	q0 *= recipNorm;
 579              		.loc 1 143 55 view .LVU211
 580 02b0 28EE080A 		vmul.f32	s0, s16, s16
 143:Drivers/Imu/mpu6050.c **** 	q0 *= recipNorm;
 581              		.loc 1 143 14 view .LVU212
 582 02b4 37EE800A 		vadd.f32	s0, s15, s0
 583 02b8 FFF7FEFF 		bl	invSqrt
 584              	.LVL54:
 144:Drivers/Imu/mpu6050.c **** 	q1 *= recipNorm;
 585              		.loc 1 144 2 is_stmt 1 view .LVU213
 144:Drivers/Imu/mpu6050.c **** 	q1 *= recipNorm;
 586              		.loc 1 144 5 is_stmt 0 view .LVU214
 587 02bc 6DEE80DA 		vmul.f32	s27, s27, s0
 588 02c0 C4ED00DA 		vstr.32	s27, [r4]
 145:Drivers/Imu/mpu6050.c **** 	q2 *= recipNorm;
 589              		.loc 1 145 2 is_stmt 1 view .LVU215
 145:Drivers/Imu/mpu6050.c **** 	q2 *= recipNorm;
 590              		.loc 1 145 5 is_stmt 0 view .LVU216
 591 02c4 68EE808A 		vmul.f32	s17, s17, s0
 592 02c8 C6ED008A 		vstr.32	s17, [r6]
 146:Drivers/Imu/mpu6050.c **** 	q3 *= recipNorm;
 593              		.loc 1 146 2 is_stmt 1 view .LVU217
 146:Drivers/Imu/mpu6050.c **** 	q3 *= recipNorm;
 594              		.loc 1 146 5 is_stmt 0 view .LVU218
 595 02cc 69EE809A 		vmul.f32	s19, s19, s0
 596 02d0 CAED009A 		vstr.32	s19, [r10]
 147:Drivers/Imu/mpu6050.c **** 
 597              		.loc 1 147 2 is_stmt 1 view .LVU219
 147:Drivers/Imu/mpu6050.c **** 
 598              		.loc 1 147 5 is_stmt 0 view .LVU220
 599 02d4 28EE008A 		vmul.f32	s16, s16, s0
 600 02d8 85ED008A 		vstr.32	s16, [r5]
 150:Drivers/Imu/mpu6050.c **** 	*pitch = -asin(-2.0f * (q1*q3 - q0*q2));
 601              		.loc 1 150 2 is_stmt 1 view .LVU221
 150:Drivers/Imu/mpu6050.c **** 	*pitch = -asin(-2.0f * (q1*q3 - q0*q2));
 602              		.loc 1 150 18 is_stmt 0 view .LVU222
 603 02dc 6DEEA8DA 		vmul.f32	s27, s27, s17
 150:Drivers/Imu/mpu6050.c **** 	*pitch = -asin(-2.0f * (q1*q3 - q0*q2));
 604              		.loc 1 150 26 view .LVU223
ARM GAS  C:\Users\Teodor\AppData\Local\Temp\ccQX8tYY.s 			page 18


 605 02e0 29EE888A 		vmul.f32	s16, s19, s16
 150:Drivers/Imu/mpu6050.c **** 	*pitch = -asin(-2.0f * (q1*q3 - q0*q2));
 606              		.loc 1 150 22 view .LVU224
 607 02e4 3DEE888A 		vadd.f32	s16, s27, s16
 150:Drivers/Imu/mpu6050.c **** 	*pitch = -asin(-2.0f * (q1*q3 - q0*q2));
 608              		.loc 1 150 40 view .LVU225
 609 02e8 68EEA88A 		vmul.f32	s17, s17, s17
 150:Drivers/Imu/mpu6050.c **** 	*pitch = -asin(-2.0f * (q1*q3 - q0*q2));
 610              		.loc 1 150 36 view .LVU226
 611 02ec B6EE009A 		vmov.f32	s18, #5.0e-1
 612 02f0 79EE688A 		vsub.f32	s17, s18, s17
 150:Drivers/Imu/mpu6050.c **** 	*pitch = -asin(-2.0f * (q1*q3 - q0*q2));
 613              		.loc 1 150 48 view .LVU227
 614 02f4 69EEA99A 		vmul.f32	s19, s19, s19
 150:Drivers/Imu/mpu6050.c **** 	*pitch = -asin(-2.0f * (q1*q3 - q0*q2));
 615              		.loc 1 150 10 view .LVU228
 616 02f8 78EEE97A 		vsub.f32	s15, s17, s19
 617 02fc 17EE900A 		vmov	r0, s15
 618 0300 FFF7FEFF 		bl	__aeabi_f2d
 619              	.LVL55:
 150:Drivers/Imu/mpu6050.c **** 	*pitch = -asin(-2.0f * (q1*q3 - q0*q2));
 620              		.loc 1 150 10 view .LVU229
 621 0304 41EC1A0B 		vmov	d10, r0, r1
 622 0308 18EE100A 		vmov	r0, s16
 623 030c FFF7FEFF 		bl	__aeabi_f2d
 624              	.LVL56:
 625 0310 B0EE4A1A 		vmov.f32	s2, s20
 626 0314 F0EE6A1A 		vmov.f32	s3, s21
 627 0318 41EC100B 		vmov	d0, r0, r1
 628 031c FFF7FEFF 		bl	atan2
 629              	.LVL57:
 630 0320 51EC100B 		vmov	r0, r1, d0
 631 0324 FFF7FEFF 		bl	__aeabi_d2f
 632              	.LVL58:
 150:Drivers/Imu/mpu6050.c **** 	*pitch = -asin(-2.0f * (q1*q3 - q0*q2));
 633              		.loc 1 150 8 view .LVU230
 634 0328 C9F80000 		str	r0, [r9]	@ float
 151:Drivers/Imu/mpu6050.c **** 	*yaw = -atan2(q1*q2 + q0*q3, 0.5f - q2*q2 - q3*q3);
 635              		.loc 1 151 2 is_stmt 1 view .LVU231
 151:Drivers/Imu/mpu6050.c **** 	*yaw = -atan2(q1*q2 + q0*q3, 0.5f - q2*q2 - q3*q3);
 636              		.loc 1 151 28 is_stmt 0 view .LVU232
 637 032c D6ED007A 		vldr.32	s15, [r6]
 638 0330 95ED007A 		vldr.32	s14, [r5]
 639 0334 67EE877A 		vmul.f32	s15, s15, s14
 151:Drivers/Imu/mpu6050.c **** 	*yaw = -atan2(q1*q2 + q0*q3, 0.5f - q2*q2 - q3*q3);
 640              		.loc 1 151 36 view .LVU233
 641 0338 94ED007A 		vldr.32	s14, [r4]
 642 033c DAED006A 		vldr.32	s13, [r10]
 643 0340 27EE267A 		vmul.f32	s14, s14, s13
 151:Drivers/Imu/mpu6050.c **** 	*yaw = -atan2(q1*q2 + q0*q3, 0.5f - q2*q2 - q3*q3);
 644              		.loc 1 151 32 view .LVU234
 645 0344 77EEC77A 		vsub.f32	s15, s15, s14
 151:Drivers/Imu/mpu6050.c **** 	*yaw = -atan2(q1*q2 + q0*q3, 0.5f - q2*q2 - q3*q3);
 646              		.loc 1 151 11 view .LVU235
 647 0348 77EEA77A 		vadd.f32	s15, s15, s15
 648 034c 17EE900A 		vmov	r0, s15
 649 0350 FFF7FEFF 		bl	__aeabi_f2d
ARM GAS  C:\Users\Teodor\AppData\Local\Temp\ccQX8tYY.s 			page 19


 650              	.LVL59:
 651 0354 41EC100B 		vmov	d0, r0, r1
 652 0358 FFF7FEFF 		bl	asin
 653              	.LVL60:
 654 035c 51EC100B 		vmov	r0, r1, d0
 655 0360 FFF7FEFF 		bl	__aeabi_d2f
 656              	.LVL61:
 151:Drivers/Imu/mpu6050.c **** 	*yaw = -atan2(q1*q2 + q0*q3, 0.5f - q2*q2 - q3*q3);
 657              		.loc 1 151 9 view .LVU236
 658 0364 C8F80000 		str	r0, [r8]	@ float
 152:Drivers/Imu/mpu6050.c **** }
 659              		.loc 1 152 2 is_stmt 1 view .LVU237
 152:Drivers/Imu/mpu6050.c **** }
 660              		.loc 1 152 18 is_stmt 0 view .LVU238
 661 0368 9AED007A 		vldr.32	s14, [r10]
 662 036c 96ED008A 		vldr.32	s16, [r6]
 663 0370 27EE088A 		vmul.f32	s16, s14, s16
 152:Drivers/Imu/mpu6050.c **** }
 664              		.loc 1 152 26 view .LVU239
 665 0374 D5ED007A 		vldr.32	s15, [r5]
 666 0378 D4ED006A 		vldr.32	s13, [r4]
 667 037c 67EEA66A 		vmul.f32	s13, s15, s13
 152:Drivers/Imu/mpu6050.c **** }
 668              		.loc 1 152 22 view .LVU240
 669 0380 38EE268A 		vadd.f32	s16, s16, s13
 152:Drivers/Imu/mpu6050.c **** }
 670              		.loc 1 152 40 view .LVU241
 671 0384 27EE077A 		vmul.f32	s14, s14, s14
 152:Drivers/Imu/mpu6050.c **** }
 672              		.loc 1 152 36 view .LVU242
 673 0388 39EE477A 		vsub.f32	s14, s18, s14
 152:Drivers/Imu/mpu6050.c **** }
 674              		.loc 1 152 48 view .LVU243
 675 038c 67EEA77A 		vmul.f32	s15, s15, s15
 152:Drivers/Imu/mpu6050.c **** }
 676              		.loc 1 152 10 view .LVU244
 677 0390 77EE677A 		vsub.f32	s15, s14, s15
 678 0394 17EE900A 		vmov	r0, s15
 679 0398 FFF7FEFF 		bl	__aeabi_f2d
 680              	.LVL62:
 681 039c 41EC190B 		vmov	d9, r0, r1
 682 03a0 18EE100A 		vmov	r0, s16
 683 03a4 FFF7FEFF 		bl	__aeabi_f2d
 684              	.LVL63:
 685 03a8 B0EE491A 		vmov.f32	s2, s18
 686 03ac F0EE691A 		vmov.f32	s3, s19
 687 03b0 41EC100B 		vmov	d0, r0, r1
 688 03b4 FFF7FEFF 		bl	atan2
 689              	.LVL64:
 690 03b8 51EC100B 		vmov	r0, r1, d0
 691 03bc FFF7FEFF 		bl	__aeabi_d2f
 692              	.LVL65:
 152:Drivers/Imu/mpu6050.c **** }
 693              		.loc 1 152 7 view .LVU245
 694 03c0 07EE900A 		vmov	s15, r0
 695 03c4 F1EE677A 		vneg.f32	s15, s15
 696 03c8 C7ED007A 		vstr.32	s15, [r7]
ARM GAS  C:\Users\Teodor\AppData\Local\Temp\ccQX8tYY.s 			page 20


 153:Drivers/Imu/mpu6050.c **** 
 697              		.loc 1 153 1 view .LVU246
 698 03cc BDEC0E8B 		vldm	sp!, {d8-d14}
 699              	.LCFI5:
 700              		.cfi_restore 92
 701              		.cfi_restore 93
 702              		.cfi_restore 90
 703              		.cfi_restore 91
 704              		.cfi_restore 88
 705              		.cfi_restore 89
 706              		.cfi_restore 86
 707              		.cfi_restore 87
 708              		.cfi_restore 84
 709              		.cfi_restore 85
 710              		.cfi_restore 82
 711              		.cfi_restore 83
 712              		.cfi_restore 80
 713              		.cfi_restore 81
 714              		.cfi_def_cfa_offset 32
 715 03d0 BDE8F087 		pop	{r4, r5, r6, r7, r8, r9, r10, pc}
 716              	.LVL66:
 717              	.L13:
 153:Drivers/Imu/mpu6050.c **** 
 718              		.loc 1 153 1 view .LVU247
 719              		.align	2
 720              	.L12:
 721 03d4 00000000 		.word	.LANCHOR1
 722 03d8 39FA8E3C 		.word	1016003129
 723 03dc 00000000 		.word	.LANCHOR2
 724 03e0 00000000 		.word	.LANCHOR3
 725 03e4 00000000 		.word	.LANCHOR4
 726 03e8 00000000 		.word	.LANCHOR5
 727 03ec 0AD7233D 		.word	1025758986
 728              		.cfi_endproc
 729              	.LFE130:
 731              		.section	.text.ScaleReceivedData_DMA,"ax",%progbits
 732              		.align	1
 733              		.global	ScaleReceivedData_DMA
 734              		.syntax unified
 735              		.thumb
 736              		.thumb_func
 738              	ScaleReceivedData_DMA:
 739              	.LFB133:
 167:Drivers/Imu/mpu6050.c **** 
 168:Drivers/Imu/mpu6050.c **** /*!
 169:Drivers/Imu/mpu6050.c ****  ************************************************************************************************
 170:Drivers/Imu/mpu6050.c ****  * \brief ScaleReceivedData_DMA
 171:Drivers/Imu/mpu6050.c ****  * \details Function used to scale received data
 172:Drivers/Imu/mpu6050.c ****  * \param 
 173:Drivers/Imu/mpu6050.c ****  * \param out 
 174:Drivers/Imu/mpu6050.c ****  * \param out 
 175:Drivers/Imu/mpu6050.c ****  *
 176:Drivers/Imu/mpu6050.c ****  * */
 177:Drivers/Imu/mpu6050.c **** void ScaleReceivedData_DMA()
 178:Drivers/Imu/mpu6050.c **** {
 740              		.loc 1 178 1 is_stmt 1 view -0
 741              		.cfi_startproc
ARM GAS  C:\Users\Teodor\AppData\Local\Temp\ccQX8tYY.s 			page 21


 742              		@ args = 0, pretend = 0, frame = 0
 743              		@ frame_needed = 0, uses_anonymous_args = 0
 744              		@ link register save eliminated.
 179:Drivers/Imu/mpu6050.c **** 	for(uint8_t coordinat = 0; coordinat < 2; coordinat++)
 745              		.loc 1 179 2 view .LVU249
 746              	.LBB2:
 747              		.loc 1 179 6 view .LVU250
 748              	.LVL67:
 749              		.loc 1 179 14 is_stmt 0 view .LVU251
 750 0000 0021     		movs	r1, #0
 751              	.LVL68:
 752              	.L20:
 753              		.loc 1 179 29 is_stmt 1 view .LVU252
 754              		.loc 1 179 2 is_stmt 0 view .LVU253
 755 0002 0129     		cmp	r1, #1
 756 0004 31D8     		bhi	.L25
 757              	.LBB3:
 180:Drivers/Imu/mpu6050.c **** 	{
 181:Drivers/Imu/mpu6050.c **** 		for(uint8_t axis = 0; axis < 3; axis++)
 758              		.loc 1 181 15 view .LVU254
 759 0006 0022     		movs	r2, #0
 760              	.LVL69:
 761              		.loc 1 181 25 is_stmt 1 view .LVU255
 762              		.loc 1 181 3 is_stmt 0 view .LVU256
 763 0008 022A     		cmp	r2, #2
 764 000a 2BD8     		bhi	.L26
 765              	.LBE3:
 766              	.LBE2:
 178:Drivers/Imu/mpu6050.c **** 	for(uint8_t coordinat = 0; coordinat < 2; coordinat++)
 767              		.loc 1 178 1 view .LVU257
 768 000c 10B4     		push	{r4}
 769              	.LCFI6:
 770              		.cfi_def_cfa_offset 4
 771              		.cfi_offset 4, -4
 772              	.L16:
 773              	.LBB6:
 774              	.LBB4:
 182:Drivers/Imu/mpu6050.c **** 		{
 183:Drivers/Imu/mpu6050.c **** 		mpuDataScaled[coordinat][axis] = ((float)((int16_t)((((int16_t)mpu_buffer[(coordinat*8)+(axis*2)]
 775              		.loc 1 183 3 is_stmt 1 discriminator 3 view .LVU258
 776              		.loc 1 183 90 is_stmt 0 discriminator 3 view .LVU259
 777 000e 02EB8103 		add	r3, r2, r1, lsl #2
 778 0012 5800     		lsls	r0, r3, #1
 779              		.loc 1 183 76 discriminator 3 view .LVU260
 780 0014 154C     		ldr	r4, .L28
 781 0016 14F813C0 		ldrb	ip, [r4, r3, lsl #1]	@ zero_extendqisi2
 782              		.loc 1 183 143 discriminator 3 view .LVU261
 783 001a 0130     		adds	r0, r0, #1
 784              		.loc 1 183 120 discriminator 3 view .LVU262
 785 001c 235C     		ldrb	r3, [r4, r0]	@ zero_extendqisi2
 786              		.loc 1 183 45 discriminator 3 view .LVU263
 787 001e 43EA0C23 		orr	r3, r3, ip, lsl #8
 788 0022 1BB2     		sxth	r3, r3
 789              		.loc 1 183 37 discriminator 3 view .LVU264
 790 0024 07EE903A 		vmov	s15, r3	@ int
 791 0028 F8EEE77A 		vcvt.f32.s32	s15, s15
 792              		.loc 1 183 159 discriminator 3 view .LVU265
ARM GAS  C:\Users\Teodor\AppData\Local\Temp\ccQX8tYY.s 			page 22


 793 002c 104B     		ldr	r3, .L28+4
 794 002e 03EB8103 		add	r3, r3, r1, lsl #2
 795 0032 D3ED006A 		vldr.32	s13, [r3]
 796              		.loc 1 183 149 discriminator 3 view .LVU266
 797 0036 87EEA67A 		vdiv.f32	s14, s15, s13
 798              		.loc 1 183 34 discriminator 3 view .LVU267
 799 003a 01EB4103 		add	r3, r1, r1, lsl #1
 800 003e 9818     		adds	r0, r3, r2
 801 0040 0C4B     		ldr	r3, .L28+8
 802 0042 03EB8003 		add	r3, r3, r0, lsl #2
 803 0046 83ED007A 		vstr.32	s14, [r3]
 181:Drivers/Imu/mpu6050.c **** 		{
 804              		.loc 1 181 35 is_stmt 1 discriminator 3 view .LVU268
 181:Drivers/Imu/mpu6050.c **** 		{
 805              		.loc 1 181 39 is_stmt 0 discriminator 3 view .LVU269
 806 004a 0132     		adds	r2, r2, #1
 807              	.LVL70:
 181:Drivers/Imu/mpu6050.c **** 		{
 808              		.loc 1 181 39 discriminator 3 view .LVU270
 809 004c D2B2     		uxtb	r2, r2
 810              	.LVL71:
 811              	.L17:
 181:Drivers/Imu/mpu6050.c **** 		{
 812              		.loc 1 181 25 is_stmt 1 discriminator 1 view .LVU271
 181:Drivers/Imu/mpu6050.c **** 		{
 813              		.loc 1 181 3 is_stmt 0 discriminator 1 view .LVU272
 814 004e 022A     		cmp	r2, #2
 815 0050 DDD9     		bls	.L16
 816              	.LBE4:
 179:Drivers/Imu/mpu6050.c **** 	{
 817              		.loc 1 179 44 is_stmt 1 discriminator 2 view .LVU273
 179:Drivers/Imu/mpu6050.c **** 	{
 818              		.loc 1 179 53 is_stmt 0 discriminator 2 view .LVU274
 819 0052 0131     		adds	r1, r1, #1
 820              	.LVL72:
 179:Drivers/Imu/mpu6050.c **** 	{
 821              		.loc 1 179 53 discriminator 2 view .LVU275
 822 0054 C9B2     		uxtb	r1, r1
 823              	.LVL73:
 179:Drivers/Imu/mpu6050.c **** 	{
 824              		.loc 1 179 29 is_stmt 1 discriminator 2 view .LVU276
 179:Drivers/Imu/mpu6050.c **** 	{
 825              		.loc 1 179 2 is_stmt 0 discriminator 2 view .LVU277
 826 0056 0129     		cmp	r1, #1
 827 0058 01D8     		bhi	.L27
 828              	.LBB5:
 181:Drivers/Imu/mpu6050.c **** 		{
 829              		.loc 1 181 15 view .LVU278
 830 005a 0022     		movs	r2, #0
 831              	.LVL74:
 181:Drivers/Imu/mpu6050.c **** 		{
 832              		.loc 1 181 15 view .LVU279
 833 005c F7E7     		b	.L17
 834              	.LVL75:
 835              	.L27:
 181:Drivers/Imu/mpu6050.c **** 		{
 836              		.loc 1 181 15 view .LVU280
ARM GAS  C:\Users\Teodor\AppData\Local\Temp\ccQX8tYY.s 			page 23


 837              	.LBE5:
 838              	.LBE6:
 184:Drivers/Imu/mpu6050.c **** 		}
 185:Drivers/Imu/mpu6050.c **** 	}	
 186:Drivers/Imu/mpu6050.c **** }
 839              		.loc 1 186 1 view .LVU281
 840 005e 5DF8044B 		ldr	r4, [sp], #4
 841              	.LCFI7:
 842              		.cfi_restore 4
 843              		.cfi_def_cfa_offset 0
 844 0062 7047     		bx	lr
 845              	.L26:
 846              	.LBB7:
 179:Drivers/Imu/mpu6050.c **** 	{
 847              		.loc 1 179 44 is_stmt 1 view .LVU282
 179:Drivers/Imu/mpu6050.c **** 	{
 848              		.loc 1 179 53 is_stmt 0 view .LVU283
 849 0064 0131     		adds	r1, r1, #1
 850              	.LVL76:
 179:Drivers/Imu/mpu6050.c **** 	{
 851              		.loc 1 179 53 view .LVU284
 852 0066 C9B2     		uxtb	r1, r1
 853              	.LVL77:
 179:Drivers/Imu/mpu6050.c **** 	{
 854              		.loc 1 179 53 view .LVU285
 855 0068 CBE7     		b	.L20
 856              	.LVL78:
 857              	.L25:
 179:Drivers/Imu/mpu6050.c **** 	{
 858              		.loc 1 179 53 view .LVU286
 859 006a 7047     		bx	lr
 860              	.L29:
 861              		.align	2
 862              	.L28:
 863 006c 00000000 		.word	.LANCHOR6
 864 0070 00000000 		.word	.LANCHOR7
 865 0074 00000000 		.word	.LANCHOR1
 866              	.LBE7:
 867              		.cfi_endproc
 868              	.LFE133:
 870              		.section	.text.GetGyroscopeRAW,"ax",%progbits
 871              		.align	1
 872              		.global	GetGyroscopeRAW
 873              		.syntax unified
 874              		.thumb
 875              		.thumb_func
 877              	GetGyroscopeRAW:
 878              	.LVL79:
 879              	.LFB134:
 187:Drivers/Imu/mpu6050.c **** 
 188:Drivers/Imu/mpu6050.c **** void GetGyroscopeRAW(int16_t *gyroRaw)//int16_t *x, int16_t *y, int16_t *z)
 189:Drivers/Imu/mpu6050.c **** {
 880              		.loc 1 189 1 is_stmt 1 view -0
 881              		.cfi_startproc
 882              		@ args = 0, pretend = 0, frame = 8
 883              		@ frame_needed = 0, uses_anonymous_args = 0
 884              		.loc 1 189 1 is_stmt 0 view .LVU288
ARM GAS  C:\Users\Teodor\AppData\Local\Temp\ccQX8tYY.s 			page 24


 885 0000 10B5     		push	{r4, lr}
 886              	.LCFI8:
 887              		.cfi_def_cfa_offset 8
 888              		.cfi_offset 4, -8
 889              		.cfi_offset 14, -4
 890 0002 86B0     		sub	sp, sp, #24
 891              	.LCFI9:
 892              		.cfi_def_cfa_offset 32
 893 0004 0446     		mov	r4, r0
 190:Drivers/Imu/mpu6050.c **** 	uint8_t tmp[6];
 894              		.loc 1 190 2 is_stmt 1 view .LVU289
 191:Drivers/Imu/mpu6050.c **** 	HAL_I2C_Mem_Read(i2c, MPU6050_ADDRESS, MPU6050_RA_GYRO_XOUT_H, 1, tmp, 6, I2C_TIMEOUT);
 895              		.loc 1 191 2 view .LVU290
 896 0006 4FF47A73 		mov	r3, #1000
 897 000a 0293     		str	r3, [sp, #8]
 898 000c 0623     		movs	r3, #6
 899 000e 0193     		str	r3, [sp, #4]
 900 0010 04AB     		add	r3, sp, #16
 901 0012 0093     		str	r3, [sp]
 902 0014 0123     		movs	r3, #1
 903 0016 4322     		movs	r2, #67
 904 0018 D221     		movs	r1, #210
 905 001a 0D48     		ldr	r0, .L32
 906              	.LVL80:
 907              		.loc 1 191 2 is_stmt 0 view .LVU291
 908 001c 0068     		ldr	r0, [r0]
 909 001e FFF7FEFF 		bl	HAL_I2C_Mem_Read
 910              	.LVL81:
 192:Drivers/Imu/mpu6050.c **** 
 193:Drivers/Imu/mpu6050.c **** 	gyroRaw[X] = (((int16_t)tmp[0]) << 8) | tmp[1];
 911              		.loc 1 193 2 is_stmt 1 view .LVU292
 912              		.loc 1 193 29 is_stmt 0 view .LVU293
 913 0022 9DF81020 		ldrb	r2, [sp, #16]	@ zero_extendqisi2
 914              		.loc 1 193 45 view .LVU294
 915 0026 9DF81130 		ldrb	r3, [sp, #17]	@ zero_extendqisi2
 916              		.loc 1 193 40 view .LVU295
 917 002a 43EA0223 		orr	r3, r3, r2, lsl #8
 918              		.loc 1 193 13 view .LVU296
 919 002e 2380     		strh	r3, [r4]	@ movhi
 194:Drivers/Imu/mpu6050.c **** 	gyroRaw[Y] = (((int16_t)tmp[2]) << 8) | tmp[3];
 920              		.loc 1 194 2 is_stmt 1 view .LVU297
 921              		.loc 1 194 29 is_stmt 0 view .LVU298
 922 0030 9DF81220 		ldrb	r2, [sp, #18]	@ zero_extendqisi2
 923              		.loc 1 194 45 view .LVU299
 924 0034 9DF81330 		ldrb	r3, [sp, #19]	@ zero_extendqisi2
 925              		.loc 1 194 40 view .LVU300
 926 0038 43EA0223 		orr	r3, r3, r2, lsl #8
 927              		.loc 1 194 13 view .LVU301
 928 003c 6380     		strh	r3, [r4, #2]	@ movhi
 195:Drivers/Imu/mpu6050.c **** 	gyroRaw[Z] = (((int16_t)tmp[4]) << 8) | tmp[5];
 929              		.loc 1 195 2 is_stmt 1 view .LVU302
 930              		.loc 1 195 29 is_stmt 0 view .LVU303
 931 003e 9DF81420 		ldrb	r2, [sp, #20]	@ zero_extendqisi2
 932              		.loc 1 195 45 view .LVU304
 933 0042 9DF81530 		ldrb	r3, [sp, #21]	@ zero_extendqisi2
 934              		.loc 1 195 40 view .LVU305
 935 0046 43EA0223 		orr	r3, r3, r2, lsl #8
ARM GAS  C:\Users\Teodor\AppData\Local\Temp\ccQX8tYY.s 			page 25


 936              		.loc 1 195 13 view .LVU306
 937 004a A380     		strh	r3, [r4, #4]	@ movhi
 196:Drivers/Imu/mpu6050.c **** }
 938              		.loc 1 196 1 view .LVU307
 939 004c 06B0     		add	sp, sp, #24
 940              	.LCFI10:
 941              		.cfi_def_cfa_offset 8
 942              		@ sp needed
 943 004e 10BD     		pop	{r4, pc}
 944              	.LVL82:
 945              	.L33:
 946              		.loc 1 196 1 view .LVU308
 947              		.align	2
 948              	.L32:
 949 0050 00000000 		.word	.LANCHOR0
 950              		.cfi_endproc
 951              	.LFE134:
 953              		.section	.text.MPU6050_GetDeviceID,"ax",%progbits
 954              		.align	1
 955              		.global	MPU6050_GetDeviceID
 956              		.syntax unified
 957              		.thumb
 958              		.thumb_func
 960              	MPU6050_GetDeviceID:
 961              	.LFB136:
 197:Drivers/Imu/mpu6050.c **** 
 198:Drivers/Imu/mpu6050.c **** /**
 199:Drivers/Imu/mpu6050.c ****  * *******************************************************************************************
 200:Drivers/Imu/mpu6050.c ****  * public function implementation
 201:Drivers/Imu/mpu6050.c ****  * *******************************************************************************************
 202:Drivers/Imu/mpu6050.c ****  * */
 203:Drivers/Imu/mpu6050.c **** 
 204:Drivers/Imu/mpu6050.c **** //
 205:Drivers/Imu/mpu6050.c **** //	Initialization
 206:Drivers/Imu/mpu6050.c **** //
 207:Drivers/Imu/mpu6050.c **** uint8_t MPU6050_Init(I2C_HandleTypeDef *hi2c)
 208:Drivers/Imu/mpu6050.c **** {
 209:Drivers/Imu/mpu6050.c **** 	i2c = hi2c;
 210:Drivers/Imu/mpu6050.c **** 
 211:Drivers/Imu/mpu6050.c **** 	// if(MPU6050_GetDeviceID() != MPU6050_ADDRESS) return 0;
 212:Drivers/Imu/mpu6050.c **** 
 213:Drivers/Imu/mpu6050.c **** 	uint8_t tmp;
 214:Drivers/Imu/mpu6050.c **** 
 215:Drivers/Imu/mpu6050.c **** 	MPU6050_DeviceReset(1);
 216:Drivers/Imu/mpu6050.c **** 
 217:Drivers/Imu/mpu6050.c **** 	tmp = 0x00;
 218:Drivers/Imu/mpu6050.c **** 	HAL_I2C_Mem_Write(i2c, MPU6050_ADDRESS, MPU6050_RA_PWR_MGMT_1, 1, &tmp, 1, I2C_TIMEOUT);
 219:Drivers/Imu/mpu6050.c **** 	HAL_Delay(100);
 220:Drivers/Imu/mpu6050.c **** 	tmp = 0x03;
 221:Drivers/Imu/mpu6050.c **** 	HAL_I2C_Mem_Write(i2c, MPU6050_ADDRESS, MPU6050_RA_PWR_MGMT_1, 1, &tmp, 1, I2C_TIMEOUT);
 222:Drivers/Imu/mpu6050.c **** 	
 223:Drivers/Imu/mpu6050.c **** 	tmp = 0x03;
 224:Drivers/Imu/mpu6050.c **** 	HAL_I2C_Mem_Write(i2c, MPU6050_ADDRESS, MPU6050_RA_CONFIG, 1, &tmp, 1, I2C_TIMEOUT);
 225:Drivers/Imu/mpu6050.c **** 	tmp = 0x04;
 226:Drivers/Imu/mpu6050.c **** 	HAL_I2C_Mem_Write(i2c, MPU6050_ADDRESS, MPU6050_RA_SMPLRT_DIV, 1, &tmp, 1, I2C_TIMEOUT);
 227:Drivers/Imu/mpu6050.c **** 	tmp = 0x00;
 228:Drivers/Imu/mpu6050.c **** 	HAL_I2C_Mem_Write(i2c, MPU6050_ADDRESS, MPU6050_RA_GYRO_CONFIG, 1, &tmp, 1, I2C_TIMEOUT); // +-250
ARM GAS  C:\Users\Teodor\AppData\Local\Temp\ccQX8tYY.s 			page 26


 229:Drivers/Imu/mpu6050.c **** 	HAL_I2C_Mem_Write(i2c, MPU6050_ADDRESS, MPU6050_RA_ACCEL_CONFIG, 1, &tmp, 1, I2C_TIMEOUT); // +_2g
 230:Drivers/Imu/mpu6050.c **** 
 231:Drivers/Imu/mpu6050.c **** 	tmp = 0x30;
 232:Drivers/Imu/mpu6050.c **** 	HAL_I2C_Mem_Write(i2c, MPU6050_ADDRESS, MPU6050_RA_INT_PIN_CFG, 1, &tmp, 1, I2C_TIMEOUT);
 233:Drivers/Imu/mpu6050.c **** 
 234:Drivers/Imu/mpu6050.c **** 	return 1;
 235:Drivers/Imu/mpu6050.c **** }
 236:Drivers/Imu/mpu6050.c **** 
 237:Drivers/Imu/mpu6050.c **** uint8_t MPU6050_GetDeviceID(void)
 238:Drivers/Imu/mpu6050.c **** {
 962              		.loc 1 238 1 is_stmt 1 view -0
 963              		.cfi_startproc
 964              		@ args = 0, pretend = 0, frame = 8
 965              		@ frame_needed = 0, uses_anonymous_args = 0
 966 0000 00B5     		push	{lr}
 967              	.LCFI11:
 968              		.cfi_def_cfa_offset 4
 969              		.cfi_offset 14, -4
 970 0002 87B0     		sub	sp, sp, #28
 971              	.LCFI12:
 972              		.cfi_def_cfa_offset 32
 239:Drivers/Imu/mpu6050.c **** 	uint8_t tmp =0U;
 973              		.loc 1 239 2 view .LVU310
 974              		.loc 1 239 10 is_stmt 0 view .LVU311
 975 0004 0023     		movs	r3, #0
 976 0006 8DF81730 		strb	r3, [sp, #23]
 240:Drivers/Imu/mpu6050.c **** 	HAL_I2C_Mem_Read(i2c, MPU6050_ADDRESS, MPU6050_RA_WHO_AM_I, 1, &tmp, 1, I2C_TIMEOUT);
 977              		.loc 1 240 2 is_stmt 1 view .LVU312
 978 000a 4FF47A73 		mov	r3, #1000
 979 000e 0293     		str	r3, [sp, #8]
 980 0010 0123     		movs	r3, #1
 981 0012 0193     		str	r3, [sp, #4]
 982 0014 0DF11702 		add	r2, sp, #23
 983 0018 0092     		str	r2, [sp]
 984 001a 7522     		movs	r2, #117
 985 001c D221     		movs	r1, #210
 986 001e 0648     		ldr	r0, .L36
 987 0020 0068     		ldr	r0, [r0]
 988 0022 FFF7FEFF 		bl	HAL_I2C_Mem_Read
 989              	.LVL83:
 241:Drivers/Imu/mpu6050.c **** 	return tmp<<1;
 990              		.loc 1 241 2 view .LVU313
 991              		.loc 1 241 12 is_stmt 0 view .LVU314
 992 0026 9DF81700 		ldrb	r0, [sp, #23]	@ zero_extendqisi2
 993 002a 4000     		lsls	r0, r0, #1
 242:Drivers/Imu/mpu6050.c **** }
 994              		.loc 1 242 1 view .LVU315
 995 002c 00F0FE00 		and	r0, r0, #254
 996 0030 07B0     		add	sp, sp, #28
 997              	.LCFI13:
 998              		.cfi_def_cfa_offset 4
 999              		@ sp needed
 1000 0032 5DF804FB 		ldr	pc, [sp], #4
 1001              	.L37:
 1002 0036 00BF     		.align	2
 1003              	.L36:
 1004 0038 00000000 		.word	.LANCHOR0
ARM GAS  C:\Users\Teodor\AppData\Local\Temp\ccQX8tYY.s 			page 27


 1005              		.cfi_endproc
 1006              	.LFE136:
 1008              		.section	.text.MPU6050_SetDlpf,"ax",%progbits
 1009              		.align	1
 1010              		.global	MPU6050_SetDlpf
 1011              		.syntax unified
 1012              		.thumb
 1013              		.thumb_func
 1015              	MPU6050_SetDlpf:
 1016              	.LVL84:
 1017              	.LFB137:
 243:Drivers/Imu/mpu6050.c **** 
 244:Drivers/Imu/mpu6050.c **** 
 245:Drivers/Imu/mpu6050.c **** 
 246:Drivers/Imu/mpu6050.c **** void MPU6050_SetDlpf(uint8_t Value)
 247:Drivers/Imu/mpu6050.c **** {
 1018              		.loc 1 247 1 is_stmt 1 view -0
 1019              		.cfi_startproc
 1020              		@ args = 0, pretend = 0, frame = 8
 1021              		@ frame_needed = 0, uses_anonymous_args = 0
 1022              		.loc 1 247 1 is_stmt 0 view .LVU317
 1023 0000 2DE9F041 		push	{r4, r5, r6, r7, r8, lr}
 1024              	.LCFI14:
 1025              		.cfi_def_cfa_offset 24
 1026              		.cfi_offset 4, -24
 1027              		.cfi_offset 5, -20
 1028              		.cfi_offset 6, -16
 1029              		.cfi_offset 7, -12
 1030              		.cfi_offset 8, -8
 1031              		.cfi_offset 14, -4
 1032 0004 86B0     		sub	sp, sp, #24
 1033              	.LCFI15:
 1034              		.cfi_def_cfa_offset 48
 1035 0006 0446     		mov	r4, r0
 248:Drivers/Imu/mpu6050.c **** 	uint8_t tmp;
 1036              		.loc 1 248 2 is_stmt 1 view .LVU318
 249:Drivers/Imu/mpu6050.c **** 	HAL_I2C_Mem_Read(i2c, MPU6050_ADDRESS, MPU6050_RA_CONFIG, 1, &tmp, 1, I2C_TIMEOUT);
 1037              		.loc 1 249 2 view .LVU319
 1038 0008 134F     		ldr	r7, .L40
 1039 000a 4FF47A78 		mov	r8, #1000
 1040 000e CDF80880 		str	r8, [sp, #8]
 1041 0012 0126     		movs	r6, #1
 1042 0014 0196     		str	r6, [sp, #4]
 1043 0016 0DF11705 		add	r5, sp, #23
 1044 001a 0095     		str	r5, [sp]
 1045 001c 3346     		mov	r3, r6
 1046 001e 1A22     		movs	r2, #26
 1047 0020 D221     		movs	r1, #210
 1048 0022 3868     		ldr	r0, [r7]
 1049              	.LVL85:
 1050              		.loc 1 249 2 is_stmt 0 view .LVU320
 1051 0024 FFF7FEFF 		bl	HAL_I2C_Mem_Read
 1052              	.LVL86:
 250:Drivers/Imu/mpu6050.c **** 	tmp &= 0xF8;
 1053              		.loc 1 250 2 is_stmt 1 view .LVU321
 1054              		.loc 1 250 6 is_stmt 0 view .LVU322
 1055 0028 9DF81700 		ldrb	r0, [sp, #23]	@ zero_extendqisi2
ARM GAS  C:\Users\Teodor\AppData\Local\Temp\ccQX8tYY.s 			page 28


 1056 002c 00F0F800 		and	r0, r0, #248
 1057 0030 8DF81700 		strb	r0, [sp, #23]
 251:Drivers/Imu/mpu6050.c **** 	tmp |= (Value & 0x7);
 1058              		.loc 1 251 2 is_stmt 1 view .LVU323
 1059              		.loc 1 251 16 is_stmt 0 view .LVU324
 1060 0034 04F00704 		and	r4, r4, #7
 1061              		.loc 1 251 6 view .LVU325
 1062 0038 0443     		orrs	r4, r4, r0
 1063 003a 8DF81740 		strb	r4, [sp, #23]
 252:Drivers/Imu/mpu6050.c **** 	HAL_I2C_Mem_Write(i2c, MPU6050_ADDRESS, MPU6050_RA_CONFIG, 1, &tmp, 1, I2C_TIMEOUT);
 1064              		.loc 1 252 2 is_stmt 1 view .LVU326
 1065 003e CDF80880 		str	r8, [sp, #8]
 1066 0042 0196     		str	r6, [sp, #4]
 1067 0044 0095     		str	r5, [sp]
 1068 0046 3346     		mov	r3, r6
 1069 0048 1A22     		movs	r2, #26
 1070 004a D221     		movs	r1, #210
 1071 004c 3868     		ldr	r0, [r7]
 1072 004e FFF7FEFF 		bl	HAL_I2C_Mem_Write
 1073              	.LVL87:
 253:Drivers/Imu/mpu6050.c **** }
 1074              		.loc 1 253 1 is_stmt 0 view .LVU327
 1075 0052 06B0     		add	sp, sp, #24
 1076              	.LCFI16:
 1077              		.cfi_def_cfa_offset 24
 1078              		@ sp needed
 1079 0054 BDE8F081 		pop	{r4, r5, r6, r7, r8, pc}
 1080              	.L41:
 1081              		.align	2
 1082              	.L40:
 1083 0058 00000000 		.word	.LANCHOR0
 1084              		.cfi_endproc
 1085              	.LFE137:
 1087              		.section	.text.MPU6050_DeviceReset,"ax",%progbits
 1088              		.align	1
 1089              		.global	MPU6050_DeviceReset
 1090              		.syntax unified
 1091              		.thumb
 1092              		.thumb_func
 1094              	MPU6050_DeviceReset:
 1095              	.LVL88:
 1096              	.LFB138:
 254:Drivers/Imu/mpu6050.c **** 
 255:Drivers/Imu/mpu6050.c **** void MPU6050_DeviceReset(uint8_t Reset)
 256:Drivers/Imu/mpu6050.c **** {
 1097              		.loc 1 256 1 is_stmt 1 view -0
 1098              		.cfi_startproc
 1099              		@ args = 0, pretend = 0, frame = 8
 1100              		@ frame_needed = 0, uses_anonymous_args = 0
 1101              		.loc 1 256 1 is_stmt 0 view .LVU329
 1102 0000 2DE9F041 		push	{r4, r5, r6, r7, r8, lr}
 1103              	.LCFI17:
 1104              		.cfi_def_cfa_offset 24
 1105              		.cfi_offset 4, -24
 1106              		.cfi_offset 5, -20
 1107              		.cfi_offset 6, -16
 1108              		.cfi_offset 7, -12
ARM GAS  C:\Users\Teodor\AppData\Local\Temp\ccQX8tYY.s 			page 29


 1109              		.cfi_offset 8, -8
 1110              		.cfi_offset 14, -4
 1111 0004 86B0     		sub	sp, sp, #24
 1112              	.LCFI18:
 1113              		.cfi_def_cfa_offset 48
 1114 0006 0646     		mov	r6, r0
 257:Drivers/Imu/mpu6050.c **** 	uint8_t tmp;
 1115              		.loc 1 257 2 is_stmt 1 view .LVU330
 258:Drivers/Imu/mpu6050.c **** 	HAL_I2C_Mem_Read(i2c, MPU6050_ADDRESS, MPU6050_RA_PWR_MGMT_1, 1, &tmp, 1, I2C_TIMEOUT);
 1116              		.loc 1 258 2 view .LVU331
 1117 0008 134F     		ldr	r7, .L44
 1118 000a 4FF47A78 		mov	r8, #1000
 1119 000e CDF80880 		str	r8, [sp, #8]
 1120 0012 0125     		movs	r5, #1
 1121 0014 0195     		str	r5, [sp, #4]
 1122 0016 0DF11704 		add	r4, sp, #23
 1123 001a 0094     		str	r4, [sp]
 1124 001c 2B46     		mov	r3, r5
 1125 001e 6B22     		movs	r2, #107
 1126 0020 D221     		movs	r1, #210
 1127 0022 3868     		ldr	r0, [r7]
 1128              	.LVL89:
 1129              		.loc 1 258 2 is_stmt 0 view .LVU332
 1130 0024 FFF7FEFF 		bl	HAL_I2C_Mem_Read
 1131              	.LVL90:
 259:Drivers/Imu/mpu6050.c **** 	tmp &= ~(1<<MPU6050_PWR1_DEVICE_RESET_BIT);
 1132              		.loc 1 259 2 is_stmt 1 view .LVU333
 1133              		.loc 1 259 6 is_stmt 0 view .LVU334
 1134 0028 9DF81730 		ldrb	r3, [sp, #23]	@ zero_extendqisi2
 1135 002c 03F07F03 		and	r3, r3, #127
 1136 0030 8DF81730 		strb	r3, [sp, #23]
 260:Drivers/Imu/mpu6050.c **** 	tmp |= ((Reset & 0x1) << MPU6050_PWR1_DEVICE_RESET_BIT);
 1137              		.loc 1 260 2 is_stmt 1 view .LVU335
 1138              		.loc 1 260 6 is_stmt 0 view .LVU336
 1139 0034 43EAC613 		orr	r3, r3, r6, lsl #7
 1140 0038 8DF81730 		strb	r3, [sp, #23]
 261:Drivers/Imu/mpu6050.c **** 	HAL_I2C_Mem_Write(i2c, MPU6050_ADDRESS, MPU6050_RA_PWR_MGMT_1, 1, &tmp, 1, I2C_TIMEOUT);
 1141              		.loc 1 261 2 is_stmt 1 view .LVU337
 1142 003c CDF80880 		str	r8, [sp, #8]
 1143 0040 0195     		str	r5, [sp, #4]
 1144 0042 0094     		str	r4, [sp]
 1145 0044 2B46     		mov	r3, r5
 1146 0046 6B22     		movs	r2, #107
 1147 0048 D221     		movs	r1, #210
 1148 004a 3868     		ldr	r0, [r7]
 1149 004c FFF7FEFF 		bl	HAL_I2C_Mem_Write
 1150              	.LVL91:
 262:Drivers/Imu/mpu6050.c **** }
 1151              		.loc 1 262 1 is_stmt 0 view .LVU338
 1152 0050 06B0     		add	sp, sp, #24
 1153              	.LCFI19:
 1154              		.cfi_def_cfa_offset 24
 1155              		@ sp needed
 1156 0052 BDE8F081 		pop	{r4, r5, r6, r7, r8, pc}
 1157              	.L45:
 1158 0056 00BF     		.align	2
 1159              	.L44:
ARM GAS  C:\Users\Teodor\AppData\Local\Temp\ccQX8tYY.s 			page 30


 1160 0058 00000000 		.word	.LANCHOR0
 1161              		.cfi_endproc
 1162              	.LFE138:
 1164              		.section	.text.MPU6050_Init,"ax",%progbits
 1165              		.align	1
 1166              		.global	MPU6050_Init
 1167              		.syntax unified
 1168              		.thumb
 1169              		.thumb_func
 1171              	MPU6050_Init:
 1172              	.LVL92:
 1173              	.LFB135:
 208:Drivers/Imu/mpu6050.c **** 	i2c = hi2c;
 1174              		.loc 1 208 1 is_stmt 1 view -0
 1175              		.cfi_startproc
 1176              		@ args = 0, pretend = 0, frame = 8
 1177              		@ frame_needed = 0, uses_anonymous_args = 0
 208:Drivers/Imu/mpu6050.c **** 	i2c = hi2c;
 1178              		.loc 1 208 1 is_stmt 0 view .LVU340
 1179 0000 2DE9F043 		push	{r4, r5, r6, r7, r8, r9, lr}
 1180              	.LCFI20:
 1181              		.cfi_def_cfa_offset 28
 1182              		.cfi_offset 4, -28
 1183              		.cfi_offset 5, -24
 1184              		.cfi_offset 6, -20
 1185              		.cfi_offset 7, -16
 1186              		.cfi_offset 8, -12
 1187              		.cfi_offset 9, -8
 1188              		.cfi_offset 14, -4
 1189 0004 87B0     		sub	sp, sp, #28
 1190              	.LCFI21:
 1191              		.cfi_def_cfa_offset 56
 209:Drivers/Imu/mpu6050.c **** 
 1192              		.loc 1 209 2 is_stmt 1 view .LVU341
 209:Drivers/Imu/mpu6050.c **** 
 1193              		.loc 1 209 6 is_stmt 0 view .LVU342
 1194 0006 314D     		ldr	r5, .L48
 1195 0008 2860     		str	r0, [r5]
 213:Drivers/Imu/mpu6050.c **** 
 1196              		.loc 1 213 2 is_stmt 1 view .LVU343
 215:Drivers/Imu/mpu6050.c **** 
 1197              		.loc 1 215 2 view .LVU344
 1198 000a 0120     		movs	r0, #1
 1199              	.LVL93:
 215:Drivers/Imu/mpu6050.c **** 
 1200              		.loc 1 215 2 is_stmt 0 view .LVU345
 1201 000c FFF7FEFF 		bl	MPU6050_DeviceReset
 1202              	.LVL94:
 217:Drivers/Imu/mpu6050.c **** 	HAL_I2C_Mem_Write(i2c, MPU6050_ADDRESS, MPU6050_RA_PWR_MGMT_1, 1, &tmp, 1, I2C_TIMEOUT);
 1203              		.loc 1 217 2 is_stmt 1 view .LVU346
 217:Drivers/Imu/mpu6050.c **** 	HAL_I2C_Mem_Write(i2c, MPU6050_ADDRESS, MPU6050_RA_PWR_MGMT_1, 1, &tmp, 1, I2C_TIMEOUT);
 1204              		.loc 1 217 6 is_stmt 0 view .LVU347
 1205 0010 4FF00008 		mov	r8, #0
 1206 0014 8DF81780 		strb	r8, [sp, #23]
 218:Drivers/Imu/mpu6050.c **** 	HAL_Delay(100);
 1207              		.loc 1 218 2 is_stmt 1 view .LVU348
 1208 0018 4FF47A77 		mov	r7, #1000
ARM GAS  C:\Users\Teodor\AppData\Local\Temp\ccQX8tYY.s 			page 31


 1209 001c 0297     		str	r7, [sp, #8]
 1210 001e 0124     		movs	r4, #1
 1211 0020 0194     		str	r4, [sp, #4]
 1212 0022 0DF11706 		add	r6, sp, #23
 1213 0026 0096     		str	r6, [sp]
 1214 0028 2346     		mov	r3, r4
 1215 002a 6B22     		movs	r2, #107
 1216 002c D221     		movs	r1, #210
 1217 002e 2868     		ldr	r0, [r5]
 1218 0030 FFF7FEFF 		bl	HAL_I2C_Mem_Write
 1219              	.LVL95:
 219:Drivers/Imu/mpu6050.c **** 	tmp = 0x03;
 1220              		.loc 1 219 2 view .LVU349
 1221 0034 6420     		movs	r0, #100
 1222 0036 FFF7FEFF 		bl	HAL_Delay
 1223              	.LVL96:
 220:Drivers/Imu/mpu6050.c **** 	HAL_I2C_Mem_Write(i2c, MPU6050_ADDRESS, MPU6050_RA_PWR_MGMT_1, 1, &tmp, 1, I2C_TIMEOUT);
 1224              		.loc 1 220 2 view .LVU350
 220:Drivers/Imu/mpu6050.c **** 	HAL_I2C_Mem_Write(i2c, MPU6050_ADDRESS, MPU6050_RA_PWR_MGMT_1, 1, &tmp, 1, I2C_TIMEOUT);
 1225              		.loc 1 220 6 is_stmt 0 view .LVU351
 1226 003a 4FF00309 		mov	r9, #3
 1227 003e 8DF81790 		strb	r9, [sp, #23]
 221:Drivers/Imu/mpu6050.c **** 	
 1228              		.loc 1 221 2 is_stmt 1 view .LVU352
 1229 0042 0297     		str	r7, [sp, #8]
 1230 0044 0194     		str	r4, [sp, #4]
 1231 0046 0096     		str	r6, [sp]
 1232 0048 2346     		mov	r3, r4
 1233 004a 6B22     		movs	r2, #107
 1234 004c D221     		movs	r1, #210
 1235 004e 2868     		ldr	r0, [r5]
 1236 0050 FFF7FEFF 		bl	HAL_I2C_Mem_Write
 1237              	.LVL97:
 223:Drivers/Imu/mpu6050.c **** 	HAL_I2C_Mem_Write(i2c, MPU6050_ADDRESS, MPU6050_RA_CONFIG, 1, &tmp, 1, I2C_TIMEOUT);
 1238              		.loc 1 223 2 view .LVU353
 223:Drivers/Imu/mpu6050.c **** 	HAL_I2C_Mem_Write(i2c, MPU6050_ADDRESS, MPU6050_RA_CONFIG, 1, &tmp, 1, I2C_TIMEOUT);
 1239              		.loc 1 223 6 is_stmt 0 view .LVU354
 1240 0054 8DF81790 		strb	r9, [sp, #23]
 224:Drivers/Imu/mpu6050.c **** 	tmp = 0x04;
 1241              		.loc 1 224 2 is_stmt 1 view .LVU355
 1242 0058 0297     		str	r7, [sp, #8]
 1243 005a 0194     		str	r4, [sp, #4]
 1244 005c 0096     		str	r6, [sp]
 1245 005e 2346     		mov	r3, r4
 1246 0060 1A22     		movs	r2, #26
 1247 0062 D221     		movs	r1, #210
 1248 0064 2868     		ldr	r0, [r5]
 1249 0066 FFF7FEFF 		bl	HAL_I2C_Mem_Write
 1250              	.LVL98:
 225:Drivers/Imu/mpu6050.c **** 	HAL_I2C_Mem_Write(i2c, MPU6050_ADDRESS, MPU6050_RA_SMPLRT_DIV, 1, &tmp, 1, I2C_TIMEOUT);
 1251              		.loc 1 225 2 view .LVU356
 225:Drivers/Imu/mpu6050.c **** 	HAL_I2C_Mem_Write(i2c, MPU6050_ADDRESS, MPU6050_RA_SMPLRT_DIV, 1, &tmp, 1, I2C_TIMEOUT);
 1252              		.loc 1 225 6 is_stmt 0 view .LVU357
 1253 006a 0423     		movs	r3, #4
 1254 006c 8DF81730 		strb	r3, [sp, #23]
 226:Drivers/Imu/mpu6050.c **** 	tmp = 0x00;
 1255              		.loc 1 226 2 is_stmt 1 view .LVU358
ARM GAS  C:\Users\Teodor\AppData\Local\Temp\ccQX8tYY.s 			page 32


 1256 0070 0297     		str	r7, [sp, #8]
 1257 0072 0194     		str	r4, [sp, #4]
 1258 0074 0096     		str	r6, [sp]
 1259 0076 2346     		mov	r3, r4
 1260 0078 1922     		movs	r2, #25
 1261 007a D221     		movs	r1, #210
 1262 007c 2868     		ldr	r0, [r5]
 1263 007e FFF7FEFF 		bl	HAL_I2C_Mem_Write
 1264              	.LVL99:
 227:Drivers/Imu/mpu6050.c **** 	HAL_I2C_Mem_Write(i2c, MPU6050_ADDRESS, MPU6050_RA_GYRO_CONFIG, 1, &tmp, 1, I2C_TIMEOUT); // +-250
 1265              		.loc 1 227 2 view .LVU359
 227:Drivers/Imu/mpu6050.c **** 	HAL_I2C_Mem_Write(i2c, MPU6050_ADDRESS, MPU6050_RA_GYRO_CONFIG, 1, &tmp, 1, I2C_TIMEOUT); // +-250
 1266              		.loc 1 227 6 is_stmt 0 view .LVU360
 1267 0082 8DF81780 		strb	r8, [sp, #23]
 228:Drivers/Imu/mpu6050.c **** 	HAL_I2C_Mem_Write(i2c, MPU6050_ADDRESS, MPU6050_RA_ACCEL_CONFIG, 1, &tmp, 1, I2C_TIMEOUT); // +_2g
 1268              		.loc 1 228 2 is_stmt 1 view .LVU361
 1269 0086 0297     		str	r7, [sp, #8]
 1270 0088 0194     		str	r4, [sp, #4]
 1271 008a 0096     		str	r6, [sp]
 1272 008c 2346     		mov	r3, r4
 1273 008e 1B22     		movs	r2, #27
 1274 0090 D221     		movs	r1, #210
 1275 0092 2868     		ldr	r0, [r5]
 1276 0094 FFF7FEFF 		bl	HAL_I2C_Mem_Write
 1277              	.LVL100:
 229:Drivers/Imu/mpu6050.c **** 
 1278              		.loc 1 229 2 view .LVU362
 1279 0098 0297     		str	r7, [sp, #8]
 1280 009a 0194     		str	r4, [sp, #4]
 1281 009c 0096     		str	r6, [sp]
 1282 009e 2346     		mov	r3, r4
 1283 00a0 1C22     		movs	r2, #28
 1284 00a2 D221     		movs	r1, #210
 1285 00a4 2868     		ldr	r0, [r5]
 1286 00a6 FFF7FEFF 		bl	HAL_I2C_Mem_Write
 1287              	.LVL101:
 231:Drivers/Imu/mpu6050.c **** 	HAL_I2C_Mem_Write(i2c, MPU6050_ADDRESS, MPU6050_RA_INT_PIN_CFG, 1, &tmp, 1, I2C_TIMEOUT);
 1288              		.loc 1 231 2 view .LVU363
 231:Drivers/Imu/mpu6050.c **** 	HAL_I2C_Mem_Write(i2c, MPU6050_ADDRESS, MPU6050_RA_INT_PIN_CFG, 1, &tmp, 1, I2C_TIMEOUT);
 1289              		.loc 1 231 6 is_stmt 0 view .LVU364
 1290 00aa 3023     		movs	r3, #48
 1291 00ac 8DF81730 		strb	r3, [sp, #23]
 232:Drivers/Imu/mpu6050.c **** 
 1292              		.loc 1 232 2 is_stmt 1 view .LVU365
 1293 00b0 0297     		str	r7, [sp, #8]
 1294 00b2 0194     		str	r4, [sp, #4]
 1295 00b4 0096     		str	r6, [sp]
 1296 00b6 2346     		mov	r3, r4
 1297 00b8 3722     		movs	r2, #55
 1298 00ba D221     		movs	r1, #210
 1299 00bc 2868     		ldr	r0, [r5]
 1300 00be FFF7FEFF 		bl	HAL_I2C_Mem_Write
 1301              	.LVL102:
 234:Drivers/Imu/mpu6050.c **** }
 1302              		.loc 1 234 2 view .LVU366
 235:Drivers/Imu/mpu6050.c **** 
 1303              		.loc 1 235 1 is_stmt 0 view .LVU367
ARM GAS  C:\Users\Teodor\AppData\Local\Temp\ccQX8tYY.s 			page 33


 1304 00c2 2046     		mov	r0, r4
 1305 00c4 07B0     		add	sp, sp, #28
 1306              	.LCFI22:
 1307              		.cfi_def_cfa_offset 28
 1308              		@ sp needed
 1309 00c6 BDE8F083 		pop	{r4, r5, r6, r7, r8, r9, pc}
 1310              	.L49:
 1311 00ca 00BF     		.align	2
 1312              	.L48:
 1313 00cc 00000000 		.word	.LANCHOR0
 1314              		.cfi_endproc
 1315              	.LFE135:
 1317              		.section	.text.MPU6050_Calibrate_Gyro,"ax",%progbits
 1318              		.align	1
 1319              		.global	MPU6050_Calibrate_Gyro
 1320              		.syntax unified
 1321              		.thumb
 1322              		.thumb_func
 1324              	MPU6050_Calibrate_Gyro:
 1325              	.LFB139:
 263:Drivers/Imu/mpu6050.c **** 
 264:Drivers/Imu/mpu6050.c **** // void MPU6050_SetSleepEnabled(uint8_t Enable)
 265:Drivers/Imu/mpu6050.c **** // {
 266:Drivers/Imu/mpu6050.c **** // 	uint8_t tmp;
 267:Drivers/Imu/mpu6050.c **** // 	HAL_I2C_Mem_Read(i2c, MPU6050_ADDRESS, MPU6050_RA_PWR_MGMT_1, 1, &tmp, 1, I2C_TIMEOUT);
 268:Drivers/Imu/mpu6050.c **** // 	tmp &= ~(1<<MPU6050_PWR1_SLEEP_BIT);
 269:Drivers/Imu/mpu6050.c **** // 	tmp |= ((Enable & 0x1) << MPU6050_PWR1_SLEEP_BIT);
 270:Drivers/Imu/mpu6050.c **** // 	HAL_I2C_Mem_Write(i2c, MPU6050_ADDRESS, MPU6050_RA_PWR_MGMT_1, 1, &tmp, 1, I2C_TIMEOUT);
 271:Drivers/Imu/mpu6050.c **** // }
 272:Drivers/Imu/mpu6050.c **** 
 273:Drivers/Imu/mpu6050.c **** 
 274:Drivers/Imu/mpu6050.c **** // void MPU6050_SetLowPowerWakeUpFrequency(uint8_t Frequency)
 275:Drivers/Imu/mpu6050.c **** // {
 276:Drivers/Imu/mpu6050.c **** // 	uint8_t tmp;
 277:Drivers/Imu/mpu6050.c **** // 	HAL_I2C_Mem_Read(i2c, MPU6050_ADDRESS, MPU6050_RA_PWR_MGMT_2, 1, &tmp, 1, I2C_TIMEOUT);
 278:Drivers/Imu/mpu6050.c **** // 	tmp &= 0x3F;
 279:Drivers/Imu/mpu6050.c **** // 	tmp |= (Frequency & 0x3) << MPU6050_PWR2_LP_WAKE_CTRL_BIT;
 280:Drivers/Imu/mpu6050.c **** // 	HAL_I2C_Mem_Write(i2c, MPU6050_ADDRESS, MPU6050_RA_PWR_MGMT_2, 1, &tmp, 1, I2C_TIMEOUT);
 281:Drivers/Imu/mpu6050.c **** // }
 282:Drivers/Imu/mpu6050.c **** 
 283:Drivers/Imu/mpu6050.c **** // void MPU6050_AccelerometerAxisStandby(uint8_t XA_Stby, uint8_t YA_Stby, uint8_t ZA_Stby)
 284:Drivers/Imu/mpu6050.c **** // {
 285:Drivers/Imu/mpu6050.c **** // 	uint8_t tmp;
 286:Drivers/Imu/mpu6050.c **** // 	HAL_I2C_Mem_Read(i2c, MPU6050_ADDRESS, MPU6050_RA_PWR_MGMT_2, 1, &tmp, 1, I2C_TIMEOUT);
 287:Drivers/Imu/mpu6050.c **** // 	tmp &= 0xC7;
 288:Drivers/Imu/mpu6050.c **** // 	tmp |= ((XA_Stby&0x1) << MPU6050_PWR2_STBY_XA_BIT)|((YA_Stby&0x1) << MPU6050_PWR2_STBY_YA_BIT)|
 289:Drivers/Imu/mpu6050.c **** // 	HAL_I2C_Mem_Write(i2c, MPU6050_ADDRESS, MPU6050_RA_PWR_MGMT_2, 1, &tmp, 1, I2C_TIMEOUT);
 290:Drivers/Imu/mpu6050.c **** // }
 291:Drivers/Imu/mpu6050.c **** 
 292:Drivers/Imu/mpu6050.c **** // void MPU6050_GyroscopeAxisStandby(uint8_t XG_Stby, uint8_t YG_Stby, uint8_t ZG_Stby)
 293:Drivers/Imu/mpu6050.c **** // {
 294:Drivers/Imu/mpu6050.c **** // 	uint8_t tmp;
 295:Drivers/Imu/mpu6050.c **** // 	HAL_I2C_Mem_Read(i2c, MPU6050_ADDRESS, MPU6050_RA_PWR_MGMT_2, 1, &tmp, 1, I2C_TIMEOUT);
 296:Drivers/Imu/mpu6050.c **** // 	tmp &= 0xF8;
 297:Drivers/Imu/mpu6050.c **** // 	tmp |= ((XG_Stby&0x1) << MPU6050_PWR2_STBY_XG_BIT)|((YG_Stby&0x1) << MPU6050_PWR2_STBY_YG_BIT)|
 298:Drivers/Imu/mpu6050.c **** // 	HAL_I2C_Mem_Write(i2c, MPU6050_ADDRESS, MPU6050_RA_PWR_MGMT_2, 1, &tmp, 1, I2C_TIMEOUT);
 299:Drivers/Imu/mpu6050.c **** // }
ARM GAS  C:\Users\Teodor\AppData\Local\Temp\ccQX8tYY.s 			page 34


 300:Drivers/Imu/mpu6050.c **** 
 301:Drivers/Imu/mpu6050.c **** uint8_t* MPU6050_Calibrate_Gyro(void)
 302:Drivers/Imu/mpu6050.c **** {
 1326              		.loc 1 302 1 is_stmt 1 view -0
 1327              		.cfi_startproc
 1328              		@ args = 0, pretend = 0, frame = 24
 1329              		@ frame_needed = 0, uses_anonymous_args = 0
 1330 0000 10B5     		push	{r4, lr}
 1331              	.LCFI23:
 1332              		.cfi_def_cfa_offset 8
 1333              		.cfi_offset 4, -8
 1334              		.cfi_offset 14, -4
 1335 0002 86B0     		sub	sp, sp, #24
 1336              	.LCFI24:
 1337              		.cfi_def_cfa_offset 32
 303:Drivers/Imu/mpu6050.c **** 	static uint8_t data[6] = {0, 0, 0, 0, 0, 0};
 1338              		.loc 1 303 2 view .LVU369
 304:Drivers/Imu/mpu6050.c **** 	int32_t gyroBias[3] = {0, 0, 0};
 1339              		.loc 1 304 2 view .LVU370
 1340              		.loc 1 304 10 is_stmt 0 view .LVU371
 1341 0004 0024     		movs	r4, #0
 1342 0006 0394     		str	r4, [sp, #12]
 1343 0008 0494     		str	r4, [sp, #16]
 1344 000a 0594     		str	r4, [sp, #20]
 305:Drivers/Imu/mpu6050.c **** 	int16_t gyroRaw[3];
 1345              		.loc 1 305 2 is_stmt 1 view .LVU372
 306:Drivers/Imu/mpu6050.c **** 
 307:Drivers/Imu/mpu6050.c **** 	for(uint16_t c = 0; c < MPU_ERR_SAMPLING_COUNTER; c++)
 1346              		.loc 1 307 2 view .LVU373
 1347              	.LBB8:
 1348              		.loc 1 307 6 view .LVU374
 1349              	.LVL103:
 1350              		.loc 1 307 2 is_stmt 0 view .LVU375
 1351 000c 16E0     		b	.L51
 1352              	.LVL104:
 1353              	.L52:
 308:Drivers/Imu/mpu6050.c **** 	{
 309:Drivers/Imu/mpu6050.c **** 		GetGyroscopeRAW(gyroRaw);
 1354              		.loc 1 309 3 is_stmt 1 discriminator 3 view .LVU376
 1355 000e 01A8     		add	r0, sp, #4
 1356 0010 FFF7FEFF 		bl	GetGyroscopeRAW
 1357              	.LVL105:
 310:Drivers/Imu/mpu6050.c **** 		gyroBias[X] += gyroRaw[X];
 1358              		.loc 1 310 3 discriminator 3 view .LVU377
 1359              		.loc 1 310 25 is_stmt 0 discriminator 3 view .LVU378
 1360 0014 BDF90420 		ldrsh	r2, [sp, #4]
 1361              		.loc 1 310 15 discriminator 3 view .LVU379
 1362 0018 039B     		ldr	r3, [sp, #12]
 1363 001a 1344     		add	r3, r3, r2
 1364 001c 0393     		str	r3, [sp, #12]
 311:Drivers/Imu/mpu6050.c **** 		gyroBias[Y] += gyroRaw[Y];
 1365              		.loc 1 311 3 is_stmt 1 discriminator 3 view .LVU380
 1366              		.loc 1 311 25 is_stmt 0 discriminator 3 view .LVU381
 1367 001e BDF90620 		ldrsh	r2, [sp, #6]
 1368              		.loc 1 311 15 discriminator 3 view .LVU382
 1369 0022 049B     		ldr	r3, [sp, #16]
 1370 0024 1344     		add	r3, r3, r2
ARM GAS  C:\Users\Teodor\AppData\Local\Temp\ccQX8tYY.s 			page 35


 1371 0026 0493     		str	r3, [sp, #16]
 312:Drivers/Imu/mpu6050.c **** 		gyroBias[Z] += gyroRaw[Z];
 1372              		.loc 1 312 3 is_stmt 1 discriminator 3 view .LVU383
 1373              		.loc 1 312 25 is_stmt 0 discriminator 3 view .LVU384
 1374 0028 BDF90820 		ldrsh	r2, [sp, #8]
 1375              		.loc 1 312 15 discriminator 3 view .LVU385
 1376 002c 059B     		ldr	r3, [sp, #20]
 1377 002e 1344     		add	r3, r3, r2
 1378 0030 0593     		str	r3, [sp, #20]
 313:Drivers/Imu/mpu6050.c **** 		HAL_Delay(5);
 1379              		.loc 1 313 3 is_stmt 1 discriminator 3 view .LVU386
 1380 0032 0520     		movs	r0, #5
 1381 0034 FFF7FEFF 		bl	HAL_Delay
 1382              	.LVL106:
 307:Drivers/Imu/mpu6050.c **** 	{
 1383              		.loc 1 307 52 discriminator 3 view .LVU387
 307:Drivers/Imu/mpu6050.c **** 	{
 1384              		.loc 1 307 53 is_stmt 0 discriminator 3 view .LVU388
 1385 0038 0134     		adds	r4, r4, #1
 1386              	.LVL107:
 307:Drivers/Imu/mpu6050.c **** 	{
 1387              		.loc 1 307 53 discriminator 3 view .LVU389
 1388 003a A4B2     		uxth	r4, r4
 1389              	.LVL108:
 1390              	.L51:
 307:Drivers/Imu/mpu6050.c **** 	{
 1391              		.loc 1 307 22 is_stmt 1 discriminator 1 view .LVU390
 307:Drivers/Imu/mpu6050.c **** 	{
 1392              		.loc 1 307 2 is_stmt 0 discriminator 1 view .LVU391
 1393 003c 42F20F73 		movw	r3, #9999
 1394 0040 9C42     		cmp	r4, r3
 1395 0042 E4D9     		bls	.L52
 1396              	.LBE8:
 314:Drivers/Imu/mpu6050.c **** 	}
 315:Drivers/Imu/mpu6050.c **** 	
 316:Drivers/Imu/mpu6050.c **** 	gyroBias[X] /= MPU_ERR_SAMPLING_COUNTER;
 1397              		.loc 1 316 2 is_stmt 1 view .LVU392
 1398              		.loc 1 316 14 is_stmt 0 view .LVU393
 1399 0044 0399     		ldr	r1, [sp, #12]
 1400 0046 1C48     		ldr	r0, .L60
 1401 0048 80FB0132 		smull	r3, r2, r0, r1
 1402 004c C917     		asrs	r1, r1, #31
 1403 004e C1EB2231 		rsb	r1, r1, r2, asr #12
 1404 0052 0391     		str	r1, [sp, #12]
 317:Drivers/Imu/mpu6050.c **** 	gyroBias[Y] /= MPU_ERR_SAMPLING_COUNTER;
 1405              		.loc 1 317 2 is_stmt 1 view .LVU394
 1406              		.loc 1 317 14 is_stmt 0 view .LVU395
 1407 0054 049A     		ldr	r2, [sp, #16]
 1408 0056 80FB0234 		smull	r3, r4, r0, r2
 1409              	.LVL109:
 1410              		.loc 1 317 14 view .LVU396
 1411 005a D217     		asrs	r2, r2, #31
 1412 005c C2EB2432 		rsb	r2, r2, r4, asr #12
 1413 0060 0492     		str	r2, [sp, #16]
 318:Drivers/Imu/mpu6050.c **** 	gyroBias[Z] /= MPU_ERR_SAMPLING_COUNTER;
 1414              		.loc 1 318 2 is_stmt 1 view .LVU397
 1415              		.loc 1 318 14 is_stmt 0 view .LVU398
ARM GAS  C:\Users\Teodor\AppData\Local\Temp\ccQX8tYY.s 			page 36


 1416 0062 059B     		ldr	r3, [sp, #20]
 1417 0064 80FB0340 		smull	r4, r0, r0, r3
 1418 0068 DB17     		asrs	r3, r3, #31
 1419 006a C3EB2033 		rsb	r3, r3, r0, asr #12
 1420 006e 0593     		str	r3, [sp, #20]
 319:Drivers/Imu/mpu6050.c **** 
 320:Drivers/Imu/mpu6050.c **** 	data[0] = (-gyroBias[X]/4  >> 8) & 0xFF;
 1421              		.loc 1 320 2 is_stmt 1 view .LVU399
 1422              		.loc 1 320 13 is_stmt 0 view .LVU400
 1423 0070 4942     		rsbs	r1, r1, #0
 1424              		.loc 1 320 25 view .LVU401
 1425 0072 0029     		cmp	r1, #0
 1426 0074 1ADB     		blt	.L57
 1427              	.L53:
 1428 0076 8C10     		asrs	r4, r1, #2
 1429              		.loc 1 320 29 view .LVU402
 1430 0078 8912     		asrs	r1, r1, #10
 1431              		.loc 1 320 10 view .LVU403
 1432 007a 1048     		ldr	r0, .L60+4
 1433 007c 0170     		strb	r1, [r0]
 321:Drivers/Imu/mpu6050.c **** 	data[1] = (-gyroBias[X]/4)       & 0xFF;
 1434              		.loc 1 321 2 is_stmt 1 view .LVU404
 1435              		.loc 1 321 10 is_stmt 0 view .LVU405
 1436 007e 4470     		strb	r4, [r0, #1]
 322:Drivers/Imu/mpu6050.c **** 	data[2] = (-gyroBias[Y]/4  >> 8) & 0xFF;
 1437              		.loc 1 322 2 is_stmt 1 view .LVU406
 1438              		.loc 1 322 13 is_stmt 0 view .LVU407
 1439 0080 5242     		rsbs	r2, r2, #0
 1440              		.loc 1 322 25 view .LVU408
 1441 0082 002A     		cmp	r2, #0
 1442 0084 14DB     		blt	.L58
 1443              	.L54:
 1444 0086 9010     		asrs	r0, r2, #2
 1445              		.loc 1 322 29 view .LVU409
 1446 0088 9212     		asrs	r2, r2, #10
 1447              		.loc 1 322 10 view .LVU410
 1448 008a 0C49     		ldr	r1, .L60+4
 1449 008c 8A70     		strb	r2, [r1, #2]
 323:Drivers/Imu/mpu6050.c **** 	data[3] = (-gyroBias[Y]/4)       & 0xFF;
 1450              		.loc 1 323 2 is_stmt 1 view .LVU411
 1451              		.loc 1 323 10 is_stmt 0 view .LVU412
 1452 008e C870     		strb	r0, [r1, #3]
 324:Drivers/Imu/mpu6050.c **** 	data[4] = (-gyroBias[Z]/4  >> 8) & 0xFF;
 1453              		.loc 1 324 2 is_stmt 1 view .LVU413
 1454              		.loc 1 324 13 is_stmt 0 view .LVU414
 1455 0090 5B42     		rsbs	r3, r3, #0
 1456              		.loc 1 324 25 view .LVU415
 1457 0092 002B     		cmp	r3, #0
 1458 0094 0EDB     		blt	.L59
 1459              	.L55:
 1460 0096 9A10     		asrs	r2, r3, #2
 1461              		.loc 1 324 29 view .LVU416
 1462 0098 9B12     		asrs	r3, r3, #10
 1463              		.loc 1 324 10 view .LVU417
 1464 009a 084C     		ldr	r4, .L60+4
 1465 009c 2371     		strb	r3, [r4, #4]
 325:Drivers/Imu/mpu6050.c **** 	data[5] = (-gyroBias[Z]/4)       & 0xFF;
ARM GAS  C:\Users\Teodor\AppData\Local\Temp\ccQX8tYY.s 			page 37


 1466              		.loc 1 325 2 is_stmt 1 view .LVU418
 1467              		.loc 1 325 10 is_stmt 0 view .LVU419
 1468 009e 6271     		strb	r2, [r4, #5]
 326:Drivers/Imu/mpu6050.c **** 
 327:Drivers/Imu/mpu6050.c **** 	Set_Calibrate_Gyro(data);
 1469              		.loc 1 327 2 is_stmt 1 view .LVU420
 1470 00a0 2046     		mov	r0, r4
 1471 00a2 FFF7FEFF 		bl	Set_Calibrate_Gyro
 1472              	.LVL110:
 328:Drivers/Imu/mpu6050.c **** 
 329:Drivers/Imu/mpu6050.c **** 	return data;
 1473              		.loc 1 329 2 view .LVU421
 330:Drivers/Imu/mpu6050.c **** }
 1474              		.loc 1 330 1 is_stmt 0 view .LVU422
 1475 00a6 2046     		mov	r0, r4
 1476 00a8 06B0     		add	sp, sp, #24
 1477              	.LCFI25:
 1478              		.cfi_remember_state
 1479              		.cfi_def_cfa_offset 8
 1480              		@ sp needed
 1481 00aa 10BD     		pop	{r4, pc}
 1482              	.L57:
 1483              	.LCFI26:
 1484              		.cfi_restore_state
 320:Drivers/Imu/mpu6050.c **** 	data[1] = (-gyroBias[X]/4)       & 0xFF;
 1485              		.loc 1 320 25 view .LVU423
 1486 00ac 0331     		adds	r1, r1, #3
 1487 00ae E2E7     		b	.L53
 1488              	.L58:
 322:Drivers/Imu/mpu6050.c **** 	data[3] = (-gyroBias[Y]/4)       & 0xFF;
 1489              		.loc 1 322 25 view .LVU424
 1490 00b0 0332     		adds	r2, r2, #3
 1491 00b2 E8E7     		b	.L54
 1492              	.L59:
 324:Drivers/Imu/mpu6050.c **** 	data[5] = (-gyroBias[Z]/4)       & 0xFF;
 1493              		.loc 1 324 25 view .LVU425
 1494 00b4 0333     		adds	r3, r3, #3
 1495 00b6 EEE7     		b	.L55
 1496              	.L61:
 1497              		.align	2
 1498              	.L60:
 1499 00b8 AD8BDB68 		.word	1759218605
 1500 00bc 00000000 		.word	.LANCHOR8
 1501              		.cfi_endproc
 1502              	.LFE139:
 1504              		.section	.text.MPU6050_Start_IRQ,"ax",%progbits
 1505              		.align	1
 1506              		.global	MPU6050_Start_IRQ
 1507              		.syntax unified
 1508              		.thumb
 1509              		.thumb_func
 1511              	MPU6050_Start_IRQ:
 1512              	.LFB140:
 331:Drivers/Imu/mpu6050.c **** 
 332:Drivers/Imu/mpu6050.c **** 
 333:Drivers/Imu/mpu6050.c **** void MPU6050_Start_IRQ(void) //Enable Int
 334:Drivers/Imu/mpu6050.c **** {
ARM GAS  C:\Users\Teodor\AppData\Local\Temp\ccQX8tYY.s 			page 38


 1513              		.loc 1 334 1 is_stmt 1 view -0
 1514              		.cfi_startproc
 1515              		@ args = 0, pretend = 0, frame = 8
 1516              		@ frame_needed = 0, uses_anonymous_args = 0
 1517 0000 00B5     		push	{lr}
 1518              	.LCFI27:
 1519              		.cfi_def_cfa_offset 4
 1520              		.cfi_offset 14, -4
 1521 0002 87B0     		sub	sp, sp, #28
 1522              	.LCFI28:
 1523              		.cfi_def_cfa_offset 32
 335:Drivers/Imu/mpu6050.c **** 	uint8_t tmp = 0x01;
 1524              		.loc 1 335 2 view .LVU427
 1525              		.loc 1 335 10 is_stmt 0 view .LVU428
 1526 0004 0123     		movs	r3, #1
 1527 0006 8DF81730 		strb	r3, [sp, #23]
 336:Drivers/Imu/mpu6050.c **** 	HAL_I2C_Mem_Write(i2c, MPU6050_ADDRESS, MPU6050_RA_INT_ENABLE, 1, &tmp, 1, I2C_TIMEOUT);
 1528              		.loc 1 336 2 is_stmt 1 view .LVU429
 1529 000a 4FF47A72 		mov	r2, #1000
 1530 000e 0292     		str	r2, [sp, #8]
 1531 0010 0193     		str	r3, [sp, #4]
 1532 0012 0DF11702 		add	r2, sp, #23
 1533 0016 0092     		str	r2, [sp]
 1534 0018 3822     		movs	r2, #56
 1535 001a D221     		movs	r1, #210
 1536 001c 0748     		ldr	r0, .L64
 1537 001e 0068     		ldr	r0, [r0]
 1538 0020 FFF7FEFF 		bl	HAL_I2C_Mem_Write
 1539              	.LVL111:
 337:Drivers/Imu/mpu6050.c **** 
 338:Drivers/Imu/mpu6050.c **** 	HAL_NVIC_SetPriority(IRQ_GPIO_LINE, 0, 0);
 1540              		.loc 1 338 2 view .LVU430
 1541 0024 0022     		movs	r2, #0
 1542 0026 1146     		mov	r1, r2
 1543 0028 1720     		movs	r0, #23
 1544 002a FFF7FEFF 		bl	HAL_NVIC_SetPriority
 1545              	.LVL112:
 339:Drivers/Imu/mpu6050.c ****   	HAL_NVIC_EnableIRQ(IRQ_GPIO_LINE);
 1546              		.loc 1 339 4 view .LVU431
 1547 002e 1720     		movs	r0, #23
 1548 0030 FFF7FEFF 		bl	HAL_NVIC_EnableIRQ
 1549              	.LVL113:
 340:Drivers/Imu/mpu6050.c **** }
 1550              		.loc 1 340 1 is_stmt 0 view .LVU432
 1551 0034 07B0     		add	sp, sp, #28
 1552              	.LCFI29:
 1553              		.cfi_def_cfa_offset 4
 1554              		@ sp needed
 1555 0036 5DF804FB 		ldr	pc, [sp], #4
 1556              	.L65:
 1557 003a 00BF     		.align	2
 1558              	.L64:
 1559 003c 00000000 		.word	.LANCHOR0
 1560              		.cfi_endproc
 1561              	.LFE140:
 1563              		.section	.text.MPU6050_Stop_IRQ,"ax",%progbits
 1564              		.align	1
ARM GAS  C:\Users\Teodor\AppData\Local\Temp\ccQX8tYY.s 			page 39


 1565              		.global	MPU6050_Stop_IRQ
 1566              		.syntax unified
 1567              		.thumb
 1568              		.thumb_func
 1570              	MPU6050_Stop_IRQ:
 1571              	.LFB141:
 341:Drivers/Imu/mpu6050.c **** 
 342:Drivers/Imu/mpu6050.c **** void MPU6050_Stop_IRQ(void) //Disable_Int
 343:Drivers/Imu/mpu6050.c **** {
 1572              		.loc 1 343 1 is_stmt 1 view -0
 1573              		.cfi_startproc
 1574              		@ args = 0, pretend = 0, frame = 8
 1575              		@ frame_needed = 0, uses_anonymous_args = 0
 1576 0000 00B5     		push	{lr}
 1577              	.LCFI30:
 1578              		.cfi_def_cfa_offset 4
 1579              		.cfi_offset 14, -4
 1580 0002 87B0     		sub	sp, sp, #28
 1581              	.LCFI31:
 1582              		.cfi_def_cfa_offset 32
 344:Drivers/Imu/mpu6050.c **** 	uint8_t tmp = 0x00;
 1583              		.loc 1 344 2 view .LVU434
 1584              		.loc 1 344 10 is_stmt 0 view .LVU435
 1585 0004 0023     		movs	r3, #0
 1586 0006 8DF81730 		strb	r3, [sp, #23]
 345:Drivers/Imu/mpu6050.c **** 	HAL_I2C_Mem_Write(i2c, MPU6050_ADDRESS, MPU6050_RA_INT_ENABLE, 1, &tmp, 1, I2C_TIMEOUT);
 1587              		.loc 1 345 2 is_stmt 1 view .LVU436
 1588 000a 4FF47A73 		mov	r3, #1000
 1589 000e 0293     		str	r3, [sp, #8]
 1590 0010 0123     		movs	r3, #1
 1591 0012 0193     		str	r3, [sp, #4]
 1592 0014 0DF11702 		add	r2, sp, #23
 1593 0018 0092     		str	r2, [sp]
 1594 001a 3822     		movs	r2, #56
 1595 001c D221     		movs	r1, #210
 1596 001e 0348     		ldr	r0, .L68
 1597 0020 0068     		ldr	r0, [r0]
 1598 0022 FFF7FEFF 		bl	HAL_I2C_Mem_Write
 1599              	.LVL114:
 346:Drivers/Imu/mpu6050.c **** 
 347:Drivers/Imu/mpu6050.c **** }
 1600              		.loc 1 347 1 is_stmt 0 view .LVU437
 1601 0026 07B0     		add	sp, sp, #28
 1602              	.LCFI32:
 1603              		.cfi_def_cfa_offset 4
 1604              		@ sp needed
 1605 0028 5DF804FB 		ldr	pc, [sp], #4
 1606              	.L69:
 1607              		.align	2
 1608              	.L68:
 1609 002c 00000000 		.word	.LANCHOR0
 1610              		.cfi_endproc
 1611              	.LFE141:
 1613              		.section	.text.MPU6050_Read_DMA,"ax",%progbits
 1614              		.align	1
 1615              		.global	MPU6050_Read_DMA
 1616              		.syntax unified
ARM GAS  C:\Users\Teodor\AppData\Local\Temp\ccQX8tYY.s 			page 40


 1617              		.thumb
 1618              		.thumb_func
 1620              	MPU6050_Read_DMA:
 1621              	.LFB142:
 348:Drivers/Imu/mpu6050.c **** 
 349:Drivers/Imu/mpu6050.c **** 
 350:Drivers/Imu/mpu6050.c **** 
 351:Drivers/Imu/mpu6050.c **** 
 352:Drivers/Imu/mpu6050.c **** 
 353:Drivers/Imu/mpu6050.c **** 
 354:Drivers/Imu/mpu6050.c **** void MPU6050_Read_DMA(void)
 355:Drivers/Imu/mpu6050.c **** {
 1622              		.loc 1 355 1 is_stmt 1 view -0
 1623              		.cfi_startproc
 1624              		@ args = 0, pretend = 0, frame = 0
 1625              		@ frame_needed = 0, uses_anonymous_args = 0
 1626 0000 00B5     		push	{lr}
 1627              	.LCFI33:
 1628              		.cfi_def_cfa_offset 4
 1629              		.cfi_offset 14, -4
 1630 0002 83B0     		sub	sp, sp, #12
 1631              	.LCFI34:
 1632              		.cfi_def_cfa_offset 16
 356:Drivers/Imu/mpu6050.c **** 	HAL_I2C_Mem_Read_DMA(i2c, MPU6050_ADDRESS, MPU6050_RA_ACCEL_XOUT_H, 1, mpu_buffer, 14);
 1633              		.loc 1 356 2 view .LVU439
 1634 0004 0E23     		movs	r3, #14
 1635 0006 0193     		str	r3, [sp, #4]
 1636 0008 054B     		ldr	r3, .L72
 1637 000a 0093     		str	r3, [sp]
 1638 000c 0123     		movs	r3, #1
 1639 000e 3B22     		movs	r2, #59
 1640 0010 D221     		movs	r1, #210
 1641 0012 0448     		ldr	r0, .L72+4
 1642 0014 0068     		ldr	r0, [r0]
 1643 0016 FFF7FEFF 		bl	HAL_I2C_Mem_Read_DMA
 1644              	.LVL115:
 357:Drivers/Imu/mpu6050.c **** }
 1645              		.loc 1 357 1 is_stmt 0 view .LVU440
 1646 001a 03B0     		add	sp, sp, #12
 1647              	.LCFI35:
 1648              		.cfi_def_cfa_offset 4
 1649              		@ sp needed
 1650 001c 5DF804FB 		ldr	pc, [sp], #4
 1651              	.L73:
 1652              		.align	2
 1653              	.L72:
 1654 0020 00000000 		.word	.LANCHOR6
 1655 0024 00000000 		.word	.LANCHOR0
 1656              		.cfi_endproc
 1657              	.LFE142:
 1659              		.section	.text.MPU6050_ReadDmaDataEndCallBack,"ax",%progbits
 1660              		.align	1
 1661              		.global	MPU6050_ReadDmaDataEndCallBack
 1662              		.syntax unified
 1663              		.thumb
 1664              		.thumb_func
 1666              	MPU6050_ReadDmaDataEndCallBack:
ARM GAS  C:\Users\Teodor\AppData\Local\Temp\ccQX8tYY.s 			page 41


 1667              	.LVL116:
 1668              	.LFB143:
 358:Drivers/Imu/mpu6050.c **** 
 359:Drivers/Imu/mpu6050.c **** void MPU6050_ReadDmaDataEndCallBack(MpuData_t *RecMpuData)
 360:Drivers/Imu/mpu6050.c **** {
 1669              		.loc 1 360 1 is_stmt 1 view -0
 1670              		.cfi_startproc
 1671              		@ args = 0, pretend = 0, frame = 0
 1672              		@ frame_needed = 0, uses_anonymous_args = 0
 1673              		.loc 1 360 1 is_stmt 0 view .LVU442
 1674 0000 10B5     		push	{r4, lr}
 1675              	.LCFI36:
 1676              		.cfi_def_cfa_offset 8
 1677              		.cfi_offset 4, -8
 1678              		.cfi_offset 14, -4
 1679 0002 0446     		mov	r4, r0
 361:Drivers/Imu/mpu6050.c **** 	ScaleReceivedData_DMA();
 1680              		.loc 1 361 2 is_stmt 1 view .LVU443
 1681 0004 FFF7FEFF 		bl	ScaleReceivedData_DMA
 1682              	.LVL117:
 362:Drivers/Imu/mpu6050.c **** 	// Madgwick Orientation Filter with 6 degrees of freedom
 363:Drivers/Imu/mpu6050.c **** 	GetEulerAngles_MadgwickFilter(&RecMpuData->roll, &RecMpuData->pitch, &RecMpuData->yaw, CONF_SAMPLE
 1683              		.loc 1 363 2 view .LVU444
 1684 0008 9FED0D0A 		vldr.32	s0, .L76
 1685 000c 04F12002 		add	r2, r4, #32
 1686 0010 04F11C01 		add	r1, r4, #28
 1687 0014 04F11800 		add	r0, r4, #24
 1688 0018 FFF7FEFF 		bl	GetEulerAngles_MadgwickFilter
 1689              	.LVL118:
 364:Drivers/Imu/mpu6050.c **** 
 365:Drivers/Imu/mpu6050.c **** 	RecMpuData->accX = mpuDataScaled[gyro][X];
 1690              		.loc 1 365 2 view .LVU445
 1691              		.loc 1 365 40 is_stmt 0 view .LVU446
 1692 001c 094B     		ldr	r3, .L76+4
 1693 001e DA68     		ldr	r2, [r3, #12]	@ float
 1694              		.loc 1 365 19 view .LVU447
 1695 0020 E260     		str	r2, [r4, #12]	@ float
 366:Drivers/Imu/mpu6050.c **** 	RecMpuData->accY = mpuDataScaled[gyro][Y];
 1696              		.loc 1 366 2 is_stmt 1 view .LVU448
 1697              		.loc 1 366 40 is_stmt 0 view .LVU449
 1698 0022 1A69     		ldr	r2, [r3, #16]	@ float
 1699              		.loc 1 366 19 view .LVU450
 1700 0024 2261     		str	r2, [r4, #16]	@ float
 367:Drivers/Imu/mpu6050.c **** 	RecMpuData->accZ = mpuDataScaled[gyro][Z];
 1701              		.loc 1 367 2 is_stmt 1 view .LVU451
 1702              		.loc 1 367 40 is_stmt 0 view .LVU452
 1703 0026 5A69     		ldr	r2, [r3, #20]	@ float
 1704              		.loc 1 367 19 view .LVU453
 1705 0028 6261     		str	r2, [r4, #20]	@ float
 368:Drivers/Imu/mpu6050.c **** 	RecMpuData->accX = mpuDataScaled[acc][X];
 1706              		.loc 1 368 2 is_stmt 1 view .LVU454
 1707              		.loc 1 368 39 is_stmt 0 view .LVU455
 1708 002a 1A68     		ldr	r2, [r3]	@ float
 1709              		.loc 1 368 19 view .LVU456
 1710 002c E260     		str	r2, [r4, #12]	@ float
 369:Drivers/Imu/mpu6050.c **** 	RecMpuData->accY = mpuDataScaled[acc][Y];
 1711              		.loc 1 369 2 is_stmt 1 view .LVU457
ARM GAS  C:\Users\Teodor\AppData\Local\Temp\ccQX8tYY.s 			page 42


 1712              		.loc 1 369 39 is_stmt 0 view .LVU458
 1713 002e 5A68     		ldr	r2, [r3, #4]	@ float
 1714              		.loc 1 369 19 view .LVU459
 1715 0030 2261     		str	r2, [r4, #16]	@ float
 370:Drivers/Imu/mpu6050.c **** 	RecMpuData->accZ = mpuDataScaled[acc][Z];
 1716              		.loc 1 370 2 is_stmt 1 view .LVU460
 1717              		.loc 1 370 39 is_stmt 0 view .LVU461
 1718 0032 9B68     		ldr	r3, [r3, #8]	@ float
 1719              		.loc 1 370 19 view .LVU462
 1720 0034 6361     		str	r3, [r4, #20]	@ float
 371:Drivers/Imu/mpu6050.c **** 
 372:Drivers/Imu/mpu6050.c **** 	RecMpuData->flagUpdated = true;
 1721              		.loc 1 372 2 is_stmt 1 view .LVU463
 1722              		.loc 1 372 26 is_stmt 0 view .LVU464
 1723 0036 0123     		movs	r3, #1
 1724 0038 84F82C30 		strb	r3, [r4, #44]
 373:Drivers/Imu/mpu6050.c **** }...
 1725              		.loc 1 373 1 view .LVU465
 1726 003c 10BD     		pop	{r4, pc}
 1727              	.LVL119:
 1728              	.L77:
 1729              		.loc 1 373 1 view .LVU466
 1730 003e 00BF     		.align	2
 1731              	.L76:
 1732 0040 0AD7A33B 		.word	1000593162
 1733 0044 00000000 		.word	.LANCHOR1
 1734              		.cfi_endproc
 1735              	.LFE143:
 1737              		.global	i2c
 1738              		.global	mpu_buffer
 1739              		.global	mpuDataScaled
 1740              		.global	mpuScale
 1741              		.section	.bss.data.5,"aw",%nobits
 1742              		.align	2
 1743              		.set	.LANCHOR8,. + 0
 1746              	data.5:
 1747 0000 00000000 		.space	6
 1747      0000
 1748              		.section	.bss.i2c,"aw",%nobits
 1749              		.align	2
 1750              		.set	.LANCHOR0,. + 0
 1753              	i2c:
 1754 0000 00000000 		.space	4
 1755              		.section	.bss.mpuDataScaled,"aw",%nobits
 1756              		.align	2
 1757              		.set	.LANCHOR1,. + 0
 1760              	mpuDataScaled:
 1761 0000 00000000 		.space	24
 1761      00000000 
 1761      00000000 
 1761      00000000 
 1761      00000000 
 1762              		.section	.bss.mpu_buffer,"aw",%nobits
 1763              		.align	2
 1764              		.set	.LANCHOR6,. + 0
 1767              	mpu_buffer:
 1768 0000 00000000 		.space	14
ARM GAS  C:\Users\Teodor\AppData\Local\Temp\ccQX8tYY.s 			page 43


 1768      00000000 
 1768      00000000 
 1768      0000
 1769              		.section	.bss.q1.4,"aw",%nobits
 1770              		.align	2
 1771              		.set	.LANCHOR2,. + 0
 1774              	q1.4:
 1775 0000 00000000 		.space	4
 1776              		.section	.bss.q2.3,"aw",%nobits
 1777              		.align	2
 1778              		.set	.LANCHOR3,. + 0
 1781              	q2.3:
 1782 0000 00000000 		.space	4
 1783              		.section	.bss.q3.2,"aw",%nobits
 1784              		.align	2
 1785              		.set	.LANCHOR4,. + 0
 1788              	q3.2:
 1789 0000 00000000 		.space	4
 1790              		.section	.data.q0.1,"aw"
 1791              		.align	2
 1792              		.set	.LANCHOR5,. + 0
 1795              	q0.1:
 1796 0000 0000803F 		.word	1065353216
 1797              		.section	.rodata.mpuScale,"a"
 1798              		.align	2
 1799              		.set	.LANCHOR7,. + 0
 1802              	mpuScale:
 1803 0000 00008046 		.word	1182793728
 1804 0004 6F120343 		.word	1124274799
 1805              		.text
 1806              	.Letext0:
 1807              		.file 2 "e:\\gnu_tools\\gnu arm embedded toolchain\\10 2021.10\\arm-none-eabi\\include\\machine\\_
 1808              		.file 3 "e:\\gnu_tools\\gnu arm embedded toolchain\\10 2021.10\\arm-none-eabi\\include\\sys\\_stdi
 1809              		.file 4 "Drivers/CMSIS/Device/ST/STM32F4xx/Include/stm32f401xc.h"
 1810              		.file 5 "Drivers/STM32F4xx_HAL_Driver/Inc/stm32f4xx_hal_def.h"
 1811              		.file 6 "Drivers/STM32F4xx_HAL_Driver/Inc/stm32f4xx_hal_dma.h"
 1812              		.file 7 "Drivers/STM32F4xx_HAL_Driver/Inc/stm32f4xx_hal_i2c.h"
 1813              		.file 8 "Drivers/Imu/mpu6050.h"
 1814              		.file 9 "Drivers/STM32F4xx_HAL_Driver/Inc/stm32f4xx_hal_cortex.h"
 1815              		.file 10 "Drivers/STM32F4xx_HAL_Driver/Inc/stm32f4xx_hal.h"
 1816              		.file 11 "e:\\gnu_tools\\gnu arm embedded toolchain\\10 2021.10\\arm-none-eabi\\include\\math.h"
ARM GAS  C:\Users\Teodor\AppData\Local\Temp\ccQX8tYY.s 			page 44


DEFINED SYMBOLS
                            *ABS*:00000000 mpu6050.c
C:\Users\Teodor\AppData\Local\Temp\ccQX8tYY.s:20     .text.invSqrt:00000000 $t
C:\Users\Teodor\AppData\Local\Temp\ccQX8tYY.s:25     .text.invSqrt:00000000 invSqrt
C:\Users\Teodor\AppData\Local\Temp\ccQX8tYY.s:69     .text.invSqrt:0000002c $d
C:\Users\Teodor\AppData\Local\Temp\ccQX8tYY.s:76     .text.Set_Calibrate_Gyro:00000000 $t
C:\Users\Teodor\AppData\Local\Temp\ccQX8tYY.s:81     .text.Set_Calibrate_Gyro:00000000 Set_Calibrate_Gyro
C:\Users\Teodor\AppData\Local\Temp\ccQX8tYY.s:120    .text.Set_Calibrate_Gyro:00000024 $d
C:\Users\Teodor\AppData\Local\Temp\ccQX8tYY.s:127    .text.GetEulerAngles_MadgwickFilter:00000000 $t
C:\Users\Teodor\AppData\Local\Temp\ccQX8tYY.s:132    .text.GetEulerAngles_MadgwickFilter:00000000 GetEulerAngles_MadgwickFilter
C:\Users\Teodor\AppData\Local\Temp\ccQX8tYY.s:721    .text.GetEulerAngles_MadgwickFilter:000003d4 $d
C:\Users\Teodor\AppData\Local\Temp\ccQX8tYY.s:732    .text.ScaleReceivedData_DMA:00000000 $t
C:\Users\Teodor\AppData\Local\Temp\ccQX8tYY.s:738    .text.ScaleReceivedData_DMA:00000000 ScaleReceivedData_DMA
C:\Users\Teodor\AppData\Local\Temp\ccQX8tYY.s:863    .text.ScaleReceivedData_DMA:0000006c $d
C:\Users\Teodor\AppData\Local\Temp\ccQX8tYY.s:871    .text.GetGyroscopeRAW:00000000 $t
C:\Users\Teodor\AppData\Local\Temp\ccQX8tYY.s:877    .text.GetGyroscopeRAW:00000000 GetGyroscopeRAW
C:\Users\Teodor\AppData\Local\Temp\ccQX8tYY.s:949    .text.GetGyroscopeRAW:00000050 $d
C:\Users\Teodor\AppData\Local\Temp\ccQX8tYY.s:954    .text.MPU6050_GetDeviceID:00000000 $t
C:\Users\Teodor\AppData\Local\Temp\ccQX8tYY.s:960    .text.MPU6050_GetDeviceID:00000000 MPU6050_GetDeviceID
C:\Users\Teodor\AppData\Local\Temp\ccQX8tYY.s:1004   .text.MPU6050_GetDeviceID:00000038 $d
C:\Users\Teodor\AppData\Local\Temp\ccQX8tYY.s:1009   .text.MPU6050_SetDlpf:00000000 $t
C:\Users\Teodor\AppData\Local\Temp\ccQX8tYY.s:1015   .text.MPU6050_SetDlpf:00000000 MPU6050_SetDlpf
C:\Users\Teodor\AppData\Local\Temp\ccQX8tYY.s:1083   .text.MPU6050_SetDlpf:00000058 $d
C:\Users\Teodor\AppData\Local\Temp\ccQX8tYY.s:1088   .text.MPU6050_DeviceReset:00000000 $t
C:\Users\Teodor\AppData\Local\Temp\ccQX8tYY.s:1094   .text.MPU6050_DeviceReset:00000000 MPU6050_DeviceReset
C:\Users\Teodor\AppData\Local\Temp\ccQX8tYY.s:1160   .text.MPU6050_DeviceReset:00000058 $d
C:\Users\Teodor\AppData\Local\Temp\ccQX8tYY.s:1165   .text.MPU6050_Init:00000000 $t
C:\Users\Teodor\AppData\Local\Temp\ccQX8tYY.s:1171   .text.MPU6050_Init:00000000 MPU6050_Init
C:\Users\Teodor\AppData\Local\Temp\ccQX8tYY.s:1313   .text.MPU6050_Init:000000cc $d
C:\Users\Teodor\AppData\Local\Temp\ccQX8tYY.s:1318   .text.MPU6050_Calibrate_Gyro:00000000 $t
C:\Users\Teodor\AppData\Local\Temp\ccQX8tYY.s:1324   .text.MPU6050_Calibrate_Gyro:00000000 MPU6050_Calibrate_Gyro
C:\Users\Teodor\AppData\Local\Temp\ccQX8tYY.s:1499   .text.MPU6050_Calibrate_Gyro:000000b8 $d
C:\Users\Teodor\AppData\Local\Temp\ccQX8tYY.s:1505   .text.MPU6050_Start_IRQ:00000000 $t
C:\Users\Teodor\AppData\Local\Temp\ccQX8tYY.s:1511   .text.MPU6050_Start_IRQ:00000000 MPU6050_Start_IRQ
C:\Users\Teodor\AppData\Local\Temp\ccQX8tYY.s:1559   .text.MPU6050_Start_IRQ:0000003c $d
C:\Users\Teodor\AppData\Local\Temp\ccQX8tYY.s:1564   .text.MPU6050_Stop_IRQ:00000000 $t
C:\Users\Teodor\AppData\Local\Temp\ccQX8tYY.s:1570   .text.MPU6050_Stop_IRQ:00000000 MPU6050_Stop_IRQ
C:\Users\Teodor\AppData\Local\Temp\ccQX8tYY.s:1609   .text.MPU6050_Stop_IRQ:0000002c $d
C:\Users\Teodor\AppData\Local\Temp\ccQX8tYY.s:1614   .text.MPU6050_Read_DMA:00000000 $t
C:\Users\Teodor\AppData\Local\Temp\ccQX8tYY.s:1620   .text.MPU6050_Read_DMA:00000000 MPU6050_Read_DMA
C:\Users\Teodor\AppData\Local\Temp\ccQX8tYY.s:1654   .text.MPU6050_Read_DMA:00000020 $d
C:\Users\Teodor\AppData\Local\Temp\ccQX8tYY.s:1660   .text.MPU6050_ReadDmaDataEndCallBack:00000000 $t
C:\Users\Teodor\AppData\Local\Temp\ccQX8tYY.s:1666   .text.MPU6050_ReadDmaDataEndCallBack:00000000 MPU6050_ReadDmaDataEndCallBack
C:\Users\Teodor\AppData\Local\Temp\ccQX8tYY.s:1732   .text.MPU6050_ReadDmaDataEndCallBack:00000040 $d
C:\Users\Teodor\AppData\Local\Temp\ccQX8tYY.s:1753   .bss.i2c:00000000 i2c
C:\Users\Teodor\AppData\Local\Temp\ccQX8tYY.s:1767   .bss.mpu_buffer:00000000 mpu_buffer
C:\Users\Teodor\AppData\Local\Temp\ccQX8tYY.s:1760   .bss.mpuDataScaled:00000000 mpuDataScaled
C:\Users\Teodor\AppData\Local\Temp\ccQX8tYY.s:1802   .rodata.mpuScale:00000000 mpuScale
C:\Users\Teodor\AppData\Local\Temp\ccQX8tYY.s:1742   .bss.data.5:00000000 $d
C:\Users\Teodor\AppData\Local\Temp\ccQX8tYY.s:1746   .bss.data.5:00000000 data.5
C:\Users\Teodor\AppData\Local\Temp\ccQX8tYY.s:1749   .bss.i2c:00000000 $d
C:\Users\Teodor\AppData\Local\Temp\ccQX8tYY.s:1756   .bss.mpuDataScaled:00000000 $d
C:\Users\Teodor\AppData\Local\Temp\ccQX8tYY.s:1763   .bss.mpu_buffer:00000000 $d
C:\Users\Teodor\AppData\Local\Temp\ccQX8tYY.s:1770   .bss.q1.4:00000000 $d
C:\Users\Teodor\AppData\Local\Temp\ccQX8tYY.s:1774   .bss.q1.4:00000000 q1.4
C:\Users\Teodor\AppData\Local\Temp\ccQX8tYY.s:1777   .bss.q2.3:00000000 $d
C:\Users\Teodor\AppData\Local\Temp\ccQX8tYY.s:1781   .bss.q2.3:00000000 q2.3
ARM GAS  C:\Users\Teodor\AppData\Local\Temp\ccQX8tYY.s 			page 45


C:\Users\Teodor\AppData\Local\Temp\ccQX8tYY.s:1784   .bss.q3.2:00000000 $d
C:\Users\Teodor\AppData\Local\Temp\ccQX8tYY.s:1788   .bss.q3.2:00000000 q3.2
C:\Users\Teodor\AppData\Local\Temp\ccQX8tYY.s:1791   .data.q0.1:00000000 $d
C:\Users\Teodor\AppData\Local\Temp\ccQX8tYY.s:1795   .data.q0.1:00000000 q0.1
C:\Users\Teodor\AppData\Local\Temp\ccQX8tYY.s:1798   .rodata.mpuScale:00000000 $d

UNDEFINED SYMBOLS
HAL_I2C_Mem_Write
__aeabi_f2d
__aeabi_d2f
atan2
asin
HAL_I2C_Mem_Read
HAL_Delay
HAL_NVIC_SetPriority
HAL_NVIC_EnableIRQ
HAL_I2C_Mem_Read_DMA
